MPLINK 4.44, Linker
Linker Map File - Created Thu Mar 07 14:41:26 2013

                                 Section Info
                  Section       Type    Address   Location Size(Bytes)
                ---------  ---------  ---------  ---------  ---------
               _entry_scn       code   0x000000    program   0x000006
               highVector       code   0x000008    program   0x000006
                lowVector       code   0x000018    program   0x000006
                    mains       code   0x000040    program   0x000cda
                   .cinit    romdata   0x000d1a    program   0x00007a
              .code_TCP.o       code   0x000d94    program   0x0039a6
       .code_GetPutWork.o       code   0x00473a    program   0x00160c
        .code_Miner_WEB.o       code   0x005d46    program   0x001144
         .code_MySha256.o       code   0x006e8a    program   0x000ca0
         .code_ETH97J60.o       code   0x007b2a    program   0x000b2a
     .romdata_Miner_WEB.o    romdata   0x008654    program   0x000af6
              .code_UDP.o       code   0x00914a    program   0x000a12
          .code_Helpers.o       code   0x009b5c    program   0x000838
              .code_DNS.o       code   0x00a394    program   0x000774
       .code_Miner_Main.o       code   0x00ab08    program   0x000622
              .code_ARP.o       code   0x00b12a    program   0x0004cc
                     PROG       code   0x00b5f6    program   0x00045c
               .code_IP.o       code   0x00ba52    program   0x000310
                   STRING       code   0x00bd62    program   0x000300
                   STDLIB       code   0x00c062    program   0x0002a0
             .stringtable    romdata   0x00c302    program   0x000206
    .romdata_GetPutWork.o    romdata   0x00c508    program   0x0001d8
         .code_StackTsk.o       code   0x00c6e0    program   0x0001c2
             .code_ICMP.o       code   0x00c8a2    program   0x00012a
      .romdata_MySha256.o    romdata   0x00c9cc    program   0x000100
             .code_Tick.o       code   0x00cacc    program   0x0000e8
               _cinit_scn       code   0x00cbb4    program   0x00009e
             .code_UART.o       code   0x00cc52    program   0x000098
          .code_fxm3232.o       code   0x00ccea    program   0x000070
         .code_fxd3232u.o       code   0x00cd5a    program   0x000048
           .romdata_TCP.o    romdata   0x00cda2    program   0x000036
    .romdata_Miner_Main.o    romdata   0x00cdd8    program   0x000036
             D10KTCYXCODE       code   0x00ce0e    program   0x00002e
         .code_fxd1616u.o       code   0x00ce3c    program   0x00002c
                    .code       code   0x00ce68    program   0x00002c
             _startup_scn       code   0x00ce94    program   0x00001c
         .code_fxd0808u.o       code   0x00ceb0    program   0x00001c
           .code___init.o       code   0x00cecc    program   0x000002
              SEED_DATA_i    romdata   0x00cece    program   0x000002
      .idata_fxd0808u.o_i    romdata   0x00ced0    program   0x000000
      .romdata_fxd0808u.o    romdata   0x00ced0    program   0x000000
      .idata_fxd1616u.o_i    romdata   0x00ced0    program   0x000000
      .romdata_fxd1616u.o    romdata   0x00ced0    program   0x000000
      .idata_fxd3232u.o_i    romdata   0x00ced0    program   0x000000
      .romdata_fxd3232u.o    romdata   0x00ced0    program   0x000000
       .idata_fxm3232.o_i    romdata   0x00ced0    program   0x000000
       .romdata_fxm3232.o    romdata   0x00ced0    program   0x000000
        .idata___init.o_i    romdata   0x00ced0    program   0x000000
        .romdata___init.o    romdata   0x00ced0    program   0x000000
           .idata_UDP.o_i    romdata   0x00ced0    program   0x000002
           .romdata_UDP.o    romdata   0x00ced0    program   0x000000
          .romdata_Tick.o    romdata   0x00ced0    program   0x000000
      .romdata_StackTsk.o    romdata   0x00ced0    program   0x000000
            .romdata_IP.o    romdata   0x00ced0    program   0x000000
          .romdata_ICMP.o    romdata   0x00ced0    program   0x000000
      .romdata_ETH97J60.o    romdata   0x00ced0    program   0x000000
           .romdata_ARP.o    romdata   0x00ced0    program   0x000000
       .romdata_Helpers.o    romdata   0x00ced0    program   0x000000
          .romdata_UART.o    romdata   0x00ced0    program   0x000000
         .romdata_Delay.o    romdata   0x00ced0    program   0x000000
           .romdata_DNS.o    romdata   0x00ced0    program   0x000000
         .romdata_c018i.o    romdata   0x00ced0    program   0x000000
         .idata_c018i.o_i    romdata   0x00ced0    program   0x000000
          .idata_UART.o_i    romdata   0x00ced2    program   0x000000
          .idata_Tick.o_i    romdata   0x00ced2    program   0x000008
           .idata_TCP.o_i    romdata   0x00ceda    program   0x000002
      .idata_MySha256.o_i    romdata   0x00cedc    program   0x000000
     .idata_Miner_WEB.o_i    romdata   0x00cedc    program   0x000002
      .idata_StackTsk.o_i    romdata   0x00cedc    program   0x000000
    .idata_Miner_Main.o_i    romdata   0x00cede    program   0x000006
            .idata_IP.o_i    romdata   0x00cee4    program   0x000002
    .idata_GetPutWork.o_i    romdata   0x00cee6    program   0x000026
          .idata_ICMP.o_i    romdata   0x00cee6    program   0x000000
       .idata_Helpers.o_i    romdata   0x00cee6    program   0x000000
      .idata_ETH97J60.o_i    romdata   0x00cf0c    program   0x000000
         .idata_Delay.o_i    romdata   0x00cf0c    program   0x000000
           .idata_DNS.o_i    romdata   0x00cf0c    program   0x000004
           .idata_ARP.o_i    romdata   0x00cf10    program   0x000005
            .code_Delay.o       code   0x00cf16    program   0x000000
            .code_c018i.o       code   0x00cf16    program   0x000000
                    confo    romdata   0x01f800    program   0x000224
                   booter       code   0x01fc00    program   0x0003e8
.config_1fff8_Miner_Main.o    romdata   0x01fff8    program   0x000001
.config_1fff9_Miner_Main.o    romdata   0x01fff9    program   0x000001
.config_1fffa_Miner_Main.o    romdata   0x01fffa    program   0x000001
.config_1fffb_Miner_Main.o    romdata   0x01fffb    program   0x000001
.config_1fffd_Miner_Main.o    romdata   0x01fffd    program   0x000001
                 .tmpdata      udata   0x000000       data   0x000034
                MATH_DATA      udata   0x000034       data   0x000014
                DELAYDAT2      udata   0x000048       data   0x000001
                DELAYDAT1      udata   0x000049       data   0x000001
                 TCB_uRAM      udata   0x000060       data   0x0000fc
      .idata_GetPutWork.o      idata   0x00015c       data   0x000026
             .udata_DNS.o      udata   0x000182       data   0x000018
             .udata_ARP.o      udata   0x00019a       data   0x000014
      .udata_Miner_Main.o      udata   0x0001ae       data   0x000012
        .udata_StackTsk.o      udata   0x0001c0       data   0x00000a
            .idata_Tick.o      idata   0x0001ca       data   0x000008
            .udata_Tick.o      udata   0x0001d2       data   0x000006
      .idata_Miner_Main.o      idata   0x0001d8       data   0x000006
             .idata_ARP.o      idata   0x0001de       data   0x000005
             .idata_DNS.o      idata   0x0001e3       data   0x000004
                SEED_DATA      idata   0x0001e7       data   0x000002
             .idata_UDP.o      idata   0x0001e9       data   0x000002
             .idata_TCP.o      idata   0x0001eb       data   0x000002
       .idata_Miner_WEB.o      idata   0x0001ed       data   0x000002
              .idata_IP.o      idata   0x0001ef       data   0x000002
              .udata_IP.o      udata   0x0001f1       data   0x000001
        .idata_fxd1616u.o      idata   0x0001f2       data   0x000000
        .udata_fxd1616u.o      udata   0x0001f2       data   0x000000
        .udata_fxd3232u.o      udata   0x0001f2       data   0x000000
        .idata_fxd3232u.o      idata   0x0001f2       data   0x000000
         .udata_fxm3232.o      udata   0x0001f2       data   0x000000
        .idata_MySha256.o      idata   0x0001f2       data   0x000000
        .idata_fxd0808u.o      idata   0x0001f2       data   0x000000
         .idata_fxm3232.o      idata   0x0001f2       data   0x000000
        .udata_fxd0808u.o      udata   0x0001f2       data   0x000000
            .udata_UART.o      udata   0x0001f2       data   0x000000
           .idata_c018i.o      idata   0x0001f2       data   0x000000
           .idata_Delay.o      idata   0x0001f2       data   0x000000
           .udata_Delay.o      udata   0x0001f2       data   0x000000
         .idata_Helpers.o      idata   0x0001f2       data   0x000000
         .udata_Helpers.o      udata   0x0001f2       data   0x000000
          .udata___init.o      udata   0x0001f2       data   0x000000
            .idata_UART.o      idata   0x0001f2       data   0x000000
          .idata___init.o      idata   0x0001f2       data   0x000000
        .idata_StackTsk.o      idata   0x0001f2       data   0x000000
            .idata_ICMP.o      idata   0x0001f2       data   0x000000
            .udata_ICMP.o      udata   0x0001f2       data   0x000000
        .idata_ETH97J60.o      idata   0x0001f2       data   0x000000
      .udata_GetPutWork.o      udata   0x000200       data   0x000634
       .udata_Miner_WEB.o      udata   0x000834       data   0x00041c
                   .stack      udata   0x000d00       data   0x000100
       SYN_QUEUE_RAM_SECT      udata   0x000e00       data   0x00003c
        .udata_MySha256.o      udata   0x000e3c       data   0x000028
             .udata_UDP.o      udata   0x000e64       data   0x00001a
              temp_tblptr      udata   0x000e7e       data   0x000002
              SFR_BANKED0      udata   0x000e80       data   0x000006
              SFR_BANKED1      udata   0x000e8a       data   0x000001
              SFR_BANKED2      udata   0x000e97       data   0x000003
              SFR_BANKED3      udata   0x000ea0       data   0x000001
              SFR_BANKED4      udata   0x000ea2       data   0x000003
              SFR_BANKED5      udata   0x000ea6       data   0x000002
              SFR_BANKED6      udata   0x000eaa       data   0x000002
              SFR_BANKED7      udata   0x000eb2       data   0x000001
              SFR_BANKED8      udata   0x000eb4       data   0x000001
              SFR_BANKED9      udata   0x000eb6       data   0x000004
             SFR_BANKED10      udata   0x000ec0       data   0x000012
             SFR_BANKED11      udata   0x000ed4       data   0x000002
             SFR_BANKED12      udata   0x000ed8       data   0x000002
             SFR_BANKED13      udata   0x000ee2       data   0x000016
             SFR_BANKED14      udata   0x000efb       data   0x000001
             SFR_BANKED15      udata   0x000efd       data   0x000002
             .udata_TCP.o      udata   0x000f00       data   0x00004f
           .udata_c018i.o      udata   0x000f4f       data   0x00000a
        .udata_ETH97J60.o      udata   0x000f59       data   0x000007
            SFR_UNBANKED0      udata   0x000f60       data   0x0000a0



                              Program Memory Usage 
                               Start         End      
                           ---------   ---------      
                            0x000000    0x000005      
                            0x000008    0x00000d      
                            0x000018    0x00001d      
                            0x000040    0x00cf14      
                            0x01f800    0x01fa23      
                            0x01fc00    0x01ffe7      
                            0x01fff8    0x01fffb      
                            0x01fffd    0x01fffd      
            54520 out of 131070 program addresses used, program memory utilization is 41%



                              Symbols - Sorted by Name
                     Name    Address   Location    Storage File                     
                ---------  ---------  ---------  --------- ---------                
                  ARPInit   0x00b1e2    program     extern D:\Final\PIC_Module\Microchip\TCPIP Stack\ARP.c
            ARPIsResolved   0x00b4ac    program     extern D:\Final\PIC_Module\Microchip\TCPIP Stack\ARP.c
               ARPProcess   0x00b1fa    program     extern D:\Final\PIC_Module\Microchip\TCPIP Stack\ARP.c
                   ARPPut   0x00b12a    program     static D:\Final\PIC_Module\Microchip\TCPIP Stack\ARP.c
               ARPResolve   0x00b3a8    program     extern D:\Final\PIC_Module\Microchip\TCPIP Stack\ARP.c
     CalcIPBufferChecksum   0x00803c    program     extern D:\Final\PIC_Module\Microchip\TCPIP Stack\ETH97J60.c
           CalcIPChecksum   0x00a1a0    program     extern D:\Final\PIC_Module\Microchip\TCPIP Stack\Helpers.c
                CheckASIC   0x000946    program     static D:\Final\PIC_Module\Miner\Miner_Main.c
                 CheckMAC   0x0003be    program     static D:\Final\PIC_Module\Miner\Miner_Main.c
               CheckNonce   0x000840    program     static D:\Final\PIC_Module\Miner\Miner_Main.c
                CheckSRAM   0x0004b4    program     static D:\Final\PIC_Module\Miner\Miner_Main.c
              CloseSocket   0x00283a    program     static D:\Final\PIC_Module\Microchip\TCPIP Stack\TCP.c
                 ClrExist   0x000808    program     extern D:\Final\PIC_Module\Miner\Miner_Main.c
                 ConfInit   0x00ae8e    program     static D:\Final\PIC_Module\Miner\Miner_Main.c
                   D10K_1   0x00ce1a    program     static D:\3.43\pic18-lt\cxx-framework\src\traditional\delays\d10ktcyx.asm
                    D10Kl   0x00ce26    program     static D:\3.43\pic18-lt\cxx-framework\src\traditional\delays\d10ktcyx.asm
                    D10Kx   0x00ce18    program     static D:\3.43\pic18-lt\cxx-framework\src\traditional\delays\d10ktcyx.asm
            DNSBeginUsage   0x00a394    program     extern D:\Final\PIC_Module\Microchip\TCPIP Stack\DNS.c
              DNSEndUsage   0x00a39e    program     extern D:\Final\PIC_Module\Microchip\TCPIP Stack\DNS.c
             DNSGetString   0x00a90c    program     static D:\Final\PIC_Module\Microchip\TCPIP Stack\DNS.c
            DNSIsResolved   0x00a432    program     extern D:\Final\PIC_Module\Microchip\TCPIP Stack\DNS.c
          DNSPutROMString   0x00a82a    program     static D:\Final\PIC_Module\Microchip\TCPIP Stack\DNS.c
             DNSPutString   0x00a776    program     static D:\Final\PIC_Module\Microchip\TCPIP Stack\DNS.c
               DNSResolve   0x00a3b8    program     extern D:\Final\PIC_Module\Microchip\TCPIP Stack\DNS.c
            DNSResolveROM   0x00a3ec    program     extern D:\Final\PIC_Module\Microchip\TCPIP Stack\DNS.c
             Delay10KTCYx   0x00ce0e    program     extern D:\3.43\pic18-lt\cxx-framework\src\traditional\delays\d10ktcyx.asm
                 Dispatch   0x004e5c    program     extern D:\Final\PIC_Module\Miner\GetPutWork.c
                   DoStic   0x0066ce    program     static D:\Final\PIC_Module\Miner\Miner_WEB.c
                   EXPAND   0x006f08    program     static D:\Final\PIC_Module\Miner\MySha256.c
                   Eraser   0x01fefc    program     extern D:\Final\PIC_Module\Miner\Miner_Main.c
                 FLO3232S   0x00b5fa    program     extern D:\3.43\pic18-lt\cxx-framework\src\traditional\math\cast32FP.asm
                 FLO3232U   0x00b5f6    program     extern D:\3.43\pic18-lt\cxx-framework\src\traditional\math\cast32FP.asm
                    FPD32   0x00b62c    program     extern D:\3.43\pic18-lt\cxx-framework\src\traditional\math\divFP.asm
                    FPM32   0x00b6d2    program     extern D:\3.43\pic18-lt\cxx-framework\src\traditional\math\mulFP.asm
                 FXD0808U   0x00ceb0    program     extern D:\3.43\pic18-lt\cxx-framework\src\traditional\math\fxd0808u.c
                 FXD1616U   0x00ce3c    program     extern D:\3.43\pic18-lt\cxx-framework\src\traditional\math\fxd1616u.c
                 FXD3232U   0x00cd5a    program     extern D:\3.43\pic18-lt\cxx-framework\src\traditional\math\fxd3232u.c
                 FXM1616U   0x00b7ac    program     extern D:\3.43\pic18-lt\cxx-framework\src\traditional\math\fxm1616u.asm
                 FXM2424U   0x00b7e8    program     extern D:\3.43\pic18-lt\cxx-framework\src\traditional\math\fxm2424u.asm
                  FXM3232   0x00ccea    program     extern D:\3.43\pic18-lt\cxx-framework\src\traditional\math\fxm3232.c
       FindMatchingSocket   0x002540    program     static D:\Final\PIC_Module\Microchip\TCPIP Stack\TCP.c
       FindMatchingSocket   0x0097ba    program     static D:\Final\PIC_Module\Microchip\TCPIP Stack\UDP.c
              GPW_Restart   0x0049f4    program     extern D:\Final\PIC_Module\Miner\GetPutWork.c
      GenerateRandomDWORD   0x009b5c    program     extern D:\Final\PIC_Module\Microchip\TCPIP Stack\Helpers.c
                 GetExist   0x0007b8    program     extern D:\Final\PIC_Module\Miner\Miner_Main.c
                 GetNonce   0x00ad2e    program     extern D:\Final\PIC_Module\Miner\Miner_Main.c
              GetTickCopy   0x00cadc    program     static D:\Final\PIC_Module\Microchip\TCPIP Stack\Tick.c
                  GetWork   0x004a68    program     extern D:\Final\PIC_Module\Miner\GetPutWork.c
                 Get_UART   0x01ff32    program     static D:\Final\PIC_Module\Miner\Miner_Main.c
                 HTTPInit   0x005dda    program     extern D:\Final\PIC_Module\Miner\Miner_WEB.c
              HTTPProcess   0x005e72    program     static D:\Final\PIC_Module\Miner\Miner_WEB.c
               HTTPServer   0x005e04    program     extern D:\Final\PIC_Module\Miner\Miner_WEB.c
             HandleTCPSeg   0x0028b8    program     static D:\Final\PIC_Module\Microchip\TCPIP Stack\TCP.c
                  HighISR   0x00abc2    program     extern D:\Final\PIC_Module\Miner\Miner_Main.c
               HighVector   0x000008    program     extern D:\Final\PIC_Module\Miner\Miner_Main.c
              ICMPProcess   0x00c8a2    program     extern D:\Final\PIC_Module\Microchip\TCPIP Stack\ICMP.c
                  INT3216   0x00b87a    program     extern D:\3.43\pic18-lt\cxx-framework\src\traditional\math\castFP16.asm
                  INT3232   0x00b8d8    program     extern D:\3.43\pic18-lt\cxx-framework\src\traditional\math\castFP32.asm
                IP2String   0x005d46    program     extern D:\Final\PIC_Module\Miner\Miner_WEB.c
              IPGetHeader   0x00ba52    program     extern D:\Final\PIC_Module\Microchip\TCPIP Stack\IP.c
              IPPutHeader   0x00bb86    program     extern D:\Final\PIC_Module\Microchip\TCPIP Stack\IP.c
            IPSetRxBuffer   0x00bc80    program     extern D:\Final\PIC_Module\Microchip\TCPIP Stack\IP.c
          InitializeBoard   0x000b44    program     static D:\Final\PIC_Module\Miner\Miner_Main.c
              Job_Restart   0x0049c2    program     extern D:\Final\PIC_Module\Miner\GetPutWork.c
                        K   0x00c9cc    program     static D:\Final\PIC_Module\Miner\MySha256.c
                     LFCR   0x01fa21    program     extern D:\Final\PIC_Module\Miner\Miner_Main.c
               LoadConfig   0x00ae6c    program     static D:\Final\PIC_Module\Miner\Miner_Main.c
                   LowISR   0x00ab08    program     extern D:\Final\PIC_Module\Miner\Miner_Main.c
                LowVector   0x000018    program     extern D:\Final\PIC_Module\Miner\Miner_Main.c
                      M2S   0x0048a2    program     static D:\Final\PIC_Module\Miner\GetPutWork.c
        MACCalcRxChecksum   0x007ff0    program     extern D:\Final\PIC_Module\Microchip\TCPIP Stack\ETH97J60.c
             MACDiscardRx   0x007c76    program     extern D:\Final\PIC_Module\Microchip\TCPIP Stack\ETH97J60.c
                 MACFlush   0x007f70    program     extern D:\Final\PIC_Module\Microchip\TCPIP Stack\ETH97J60.c
                   MACGet   0x008304    program     extern D:\Final\PIC_Module\Microchip\TCPIP Stack\ETH97J60.c
              MACGetArray   0x008308    program     extern D:\Final\PIC_Module\Microchip\TCPIP Stack\ETH97J60.c
         MACGetFreeRxSize   0x007cc6    program     extern D:\Final\PIC_Module\Microchip\TCPIP Stack\ETH97J60.c
             MACGetHeader   0x007d8c    program     extern D:\Final\PIC_Module\Microchip\TCPIP Stack\ETH97J60.c
                  MACInit   0x007b2a    program     extern D:\Final\PIC_Module\Microchip\TCPIP Stack\ETH97J60.c
              MACIsLinked   0x007c32    program     extern D:\Final\PIC_Module\Microchip\TCPIP Stack\ETH97J60.c
         MACIsMemCopyDone   0x0082f8    program     extern D:\Final\PIC_Module\Microchip\TCPIP Stack\ETH97J60.c
             MACIsTxReady   0x007c44    program     extern D:\Final\PIC_Module\Microchip\TCPIP Stack\ETH97J60.c
          MACMemCopyAsync   0x0081b0    program     extern D:\Final\PIC_Module\Microchip\TCPIP Stack\ETH97J60.c
             MACPowerDown   0x0084ba    program     extern D:\Final\PIC_Module\Microchip\TCPIP Stack\ETH97J60.c
               MACPowerUp   0x0084cc    program     extern D:\Final\PIC_Module\Microchip\TCPIP Stack\ETH97J60.c
                   MACPut   0x008368    program     extern D:\Final\PIC_Module\Microchip\TCPIP Stack\ETH97J60.c
              MACPutArray   0x008382    program     extern D:\Final\PIC_Module\Microchip\TCPIP Stack\ETH97J60.c
             MACPutHeader   0x007f12    program     extern D:\Final\PIC_Module\Microchip\TCPIP Stack\ETH97J60.c
           MACPutROMArray   0x0083c6    program     extern D:\Final\PIC_Module\Microchip\TCPIP Stack\ETH97J60.c
            MACSetReadPtr   0x007fd2    program     extern D:\Final\PIC_Module\Microchip\TCPIP Stack\ETH97J60.c
        MACSetReadPtrInRx   0x007f98    program     extern D:\Final\PIC_Module\Microchip\TCPIP Stack\ETH97J60.c
           MACSetWritePtr   0x007fb8    program     extern D:\Final\PIC_Module\Microchip\TCPIP Stack\ETH97J60.c
                   MsWait   0x00ac20    program     static D:\Final\PIC_Module\Miner\Miner_Main.c
                  OneByte   0x00c2f0    program     static D:\3.43\pic18-lt\cxx-framework\src\traditional\stdclib\ltobcd.asm
                  OutASIC   0x00acda    program     extern D:\Final\PIC_Module\Miner\Miner_Main.c
                   OutDot   0x006558    program     static D:\Final\PIC_Module\Miner\Miner_WEB.c
                  OutLong   0x0064fa    program     static D:\Final\PIC_Module\Miner\Miner_WEB.c
                   OutMAC   0x00abd0    program     static D:\Final\PIC_Module\Miner\Miner_Main.c
                  OutShit   0x00661e    program     static D:\Final\PIC_Module\Miner\Miner_WEB.c
                  OutTime   0x0065d4    program     static D:\Final\PIC_Module\Miner\Miner_WEB.c
                     Page   0x0088cc    program     static D:\Final\PIC_Module\Miner\Miner_WEB.c
                  Prepare   0x01fc00    program     static D:\Final\PIC_Module\Miner\Miner_Main.c
                ProcLower   0x00c288    program     static D:\3.43\pic18-lt\cxx-framework\src\traditional\stdclib\ultoa.asm
                ProcUpper   0x00c27e    program     static D:\3.43\pic18-lt\cxx-framework\src\traditional\stdclib\ultoa.asm
                  PutStat   0x00082e    program     static D:\Final\PIC_Module\Miner\Miner_Main.c
                  PutWork   0x004f8c    program     extern D:\Final\PIC_Module\Miner\GetPutWork.c
     ROMStringToIPAddress   0x009ea8    program     extern D:\Final\PIC_Module\Microchip\TCPIP Stack\Helpers.c
                     ROTR   0x006e8a    program     static D:\Final\PIC_Module\Miner\MySha256.c
                    ROUND   0x00716e    program     static D:\Final\PIC_Module\Miner\MySha256.c
             RawErasePage   0x00afb6    program     static D:\Final\PIC_Module\Miner\Miner_Main.c
       RawWriteFlashBlock   0x00affa    program     static D:\Final\PIC_Module\Miner\Miner_Main.c
              ReInitBoard   0x000b18    program     static D:\Final\PIC_Module\Miner\Miner_Main.c
               ReadPHYReg   0x00841c    program     extern D:\Final\PIC_Module\Microchip\TCPIP Stack\ETH97J60.c
                      S2M   0x00490c    program     static D:\Final\PIC_Module\Miner\GetPutWork.c
               SPI2UsrPas   0x004838    program     static D:\Final\PIC_Module\Miner\GetPutWork.c
           SPIRAMGetArray   0x00479a    program     extern D:\Final\PIC_Module\Miner\GetPutWork.c
           SPIRAMPutArray   0x00474c    program     extern D:\Final\PIC_Module\Miner\GetPutWork.c
               SaveConfig   0x00aeaa    program     extern D:\Final\PIC_Module\Miner\Miner_Main.c
                  SendGPW   0x005882    program     static D:\Final\PIC_Module\Miner\GetPutWork.c
                  SendTCP   0x00200e    program     static D:\Final\PIC_Module\Microchip\TCPIP Stack\TCP.c
                 SetExist   0x0007e4    program     extern D:\Final\PIC_Module\Miner\Miner_Main.c
        StackApplications   0x00c86e    program     extern D:\Final\PIC_Module\Microchip\TCPIP Stack\StackTsk.c
                StackInit   0x00c6e0    program     extern D:\Final\PIC_Module\Microchip\TCPIP Stack\StackTsk.c
                StackTask   0x00c6f4    program     extern D:\Final\PIC_Module\Microchip\TCPIP Stack\StackTsk.c
        StringToIPAddress   0x009e60    program     extern D:\Final\PIC_Module\Microchip\TCPIP Stack\Helpers.c
            SwapARPPacket   0x00b552    program     static D:\Final\PIC_Module\Microchip\TCPIP Stack\ARP.c
             SwapIPHeader   0x00bcae    program     static D:\Final\PIC_Module\Microchip\TCPIP Stack\IP.c
            SwapTCPHeader   0x0027be    program     static D:\Final\PIC_Module\Microchip\TCPIP Stack\TCP.c
                  SyncTCB   0x000dea    program     static D:\Final\PIC_Module\Microchip\TCPIP Stack\TCP.c
              SyncTCBStub   0x000d94    program     static D:\Final\PIC_Module\Microchip\TCPIP Stack\TCP.c
        TCPAdjustFIFOSize   0x003338    program     extern D:\Final\PIC_Module\Microchip\TCPIP Stack\TCP.c
               TCPDiscard   0x0014a0    program     extern D:\Final\PIC_Module\Microchip\TCPIP Stack\TCP.c
            TCPDisconnect   0x0010f4    program     extern D:\Final\PIC_Module\Microchip\TCPIP Stack\TCP.c
           TCPFindArrayEx   0x0016c4    program     extern D:\Final\PIC_Module\Microchip\TCPIP Stack\TCP.c
                TCPFindEx   0x001a04    program     extern D:\Final\PIC_Module\Microchip\TCPIP Stack\TCP.c
                 TCPFlush   0x001186    program     extern D:\Final\PIC_Module\Microchip\TCPIP Stack\TCP.c
                   TCPGet   0x00150a    program     extern D:\Final\PIC_Module\Microchip\TCPIP Stack\TCP.c
              TCPGetArray   0x00157e    program     extern D:\Final\PIC_Module\Microchip\TCPIP Stack\TCP.c
         TCPGetRemoteInfo   0x001150    program     extern D:\Final\PIC_Module\Microchip\TCPIP Stack\TCP.c
         TCPGetRxFIFOFree   0x00169c    program     extern D:\Final\PIC_Module\Microchip\TCPIP Stack\TCP.c
         TCPGetTxFIFOFull   0x001476    program     extern D:\Final\PIC_Module\Microchip\TCPIP Stack\TCP.c
                  TCPInit   0x000e30    program     extern D:\Final\PIC_Module\Microchip\TCPIP Stack\TCP.c
           TCPIsConnected   0x0010d2    program     extern D:\Final\PIC_Module\Microchip\TCPIP Stack\TCP.c
            TCPIsGetReady   0x0014c4    program     extern D:\Final\PIC_Module\Microchip\TCPIP Stack\TCP.c
            TCPIsPutReady   0x0011a2    program     extern D:\Final\PIC_Module\Microchip\TCPIP Stack\TCP.c
                  TCPOpen   0x000f9e    program     extern D:\Final\PIC_Module\Microchip\TCPIP Stack\TCP.c
               TCPProcess   0x001eb8    program     extern D:\Final\PIC_Module\Microchip\TCPIP Stack\TCP.c
                   TCPPut   0x00120a    program     extern D:\Final\PIC_Module\Microchip\TCPIP Stack\TCP.c
              TCPPutArray   0x0012a0    program     extern D:\Final\PIC_Module\Microchip\TCPIP Stack\TCP.c
           TCPPutROMArray   0x001330    program     extern D:\Final\PIC_Module\Microchip\TCPIP Stack\TCP.c
          TCPPutROMString   0x001410    program     extern D:\Final\PIC_Module\Microchip\TCPIP Stack\TCP.c
             TCPPutString   0x0013b8    program     extern D:\Final\PIC_Module\Microchip\TCPIP Stack\TCP.c
               TCPRAMCopy   0x0034f4    program     static D:\Final\PIC_Module\Microchip\TCPIP Stack\TCP.c
            TCPRAMCopyROM   0x003644    program     static D:\Final\PIC_Module\Microchip\TCPIP Stack\TCP.c
     TCPSocketInitializer   0x00cda2    program     extern D:\Final\PIC_Module\Miner\TCPIPConfig.h
                  TCPTick   0x001a3a    program     extern D:\Final\PIC_Module\Microchip\TCPIP Stack\TCP.c
                  TickGet   0x00cb02    program     extern D:\Final\PIC_Module\Microchip\TCPIP Stack\Tick.c
            TickGetDiv256   0x00cb16    program     extern D:\Final\PIC_Module\Microchip\TCPIP Stack\Tick.c
            TickGetDiv64K   0x00cb40    program     extern D:\Final\PIC_Module\Microchip\TCPIP Stack\Tick.c
                 TickInit   0x00cacc    program     extern D:\Final\PIC_Module\Microchip\TCPIP Stack\Tick.c
               TickUpdate   0x00cb6a    program     extern D:\Final\PIC_Module\Microchip\TCPIP Stack\Tick.c
                 TstLower   0x00c272    program     static D:\3.43\pic18-lt\cxx-framework\src\traditional\stdclib\ultoa.asm
                 TstUpper   0x00c26c    program     static D:\3.43\pic18-lt\cxx-framework\src\traditional\stdclib\ultoa.asm
                 UDPClose   0x009252    program     extern D:\Final\PIC_Module\Microchip\TCPIP Stack\UDP.c
               UDPDiscard   0x009606    program     extern D:\Final\PIC_Module\Microchip\TCPIP Stack\UDP.c
                 UDPFlush   0x009476    program     extern D:\Final\PIC_Module\Microchip\TCPIP Stack\UDP.c
                   UDPGet   0x009562    program     extern D:\Final\PIC_Module\Microchip\TCPIP Stack\UDP.c
              UDPGetArray   0x009596    program     extern D:\Final\PIC_Module\Microchip\TCPIP Stack\UDP.c
                  UDPInit   0x00914a    program     extern D:\Final\PIC_Module\Microchip\TCPIP Stack\UDP.c
            UDPIsGetReady   0x00952e    program     extern D:\Final\PIC_Module\Microchip\TCPIP Stack\UDP.c
            UDPIsPutReady   0x0092e2    program     extern D:\Final\PIC_Module\Microchip\TCPIP Stack\UDP.c
                  UDPOpen   0x009172    program     extern D:\Final\PIC_Module\Microchip\TCPIP Stack\UDP.c
               UDPProcess   0x009620    program     extern D:\Final\PIC_Module\Microchip\TCPIP Stack\UDP.c
                   UDPPut   0x009338    program     extern D:\Final\PIC_Module\Microchip\TCPIP Stack\UDP.c
              UDPPutArray   0x009380    program     extern D:\Final\PIC_Module\Microchip\TCPIP Stack\UDP.c
           UDPPutROMArray   0x0093ae    program     extern D:\Final\PIC_Module\Microchip\TCPIP Stack\UDP.c
             UDPPutString   0x009420    program     extern D:\Final\PIC_Module\Microchip\TCPIP Stack\UDP.c
           UDPSetRxBuffer   0x0092c2    program     extern D:\Final\PIC_Module\Microchip\TCPIP Stack\UDP.c
           UDPSetTxBuffer   0x009278    program     extern D:\Final\PIC_Module\Microchip\TCPIP Stack\UDP.c
                  UDPTask   0x00916c    program     extern D:\Final\PIC_Module\Microchip\TCPIP Stack\UDP.c
               UsrPas2SPI   0x0047ea    program     static D:\Final\PIC_Module\Miner\GetPutWork.c
              WritePHYReg   0x008476    program     extern D:\Final\PIC_Module\Microchip\TCPIP Stack\ETH97J60.c
               WriteUSART   0x00cc52    program     extern D:\Final\PIC_Module\Microchip\TCPIP Stack\UART.c
              _2jContinue   0x00beae    program     static D:\3.43\pic18-lt\cxx-framework\src\traditional\stdclib\memset.asm
                   _2jEnd   0x00c006    program     static D:\3.43\pic18-lt\cxx-framework\src\traditional\stdclib\slenpgm.asm
              _3jContinue   0x00bdde    program     static D:\3.43\pic18-lt\cxx-framework\src\traditional\stdclib\mcmpp2r.asm
              _3jContinue   0x00be7a    program     static D:\3.43\pic18-lt\cxx-framework\src\traditional\stdclib\mcpyp2r.asm
                   _3jEnd   0x00beb8    program     static D:\3.43\pic18-lt\cxx-framework\src\traditional\stdclib\memset.asm
              _4jContinue   0x00be26    program     static D:\3.43\pic18-lt\cxx-framework\src\traditional\stdclib\memcpy.asm
              _4jContinue   0x00bd8e    program     static D:\3.43\pic18-lt\cxx-framework\src\traditional\stdclib\memcmp.asm
                   _4jEnd   0x00bde8    program     static D:\3.43\pic18-lt\cxx-framework\src\traditional\stdclib\mcmpp2r.asm
                   _4jEnd   0x00be84    program     static D:\3.43\pic18-lt\cxx-framework\src\traditional\stdclib\mcpyp2r.asm
                   _5jEnd   0x00bd98    program     static D:\3.43\pic18-lt\cxx-framework\src\traditional\stdclib\memcmp.asm
                   _5jEnd   0x00be30    program     static D:\3.43\pic18-lt\cxx-framework\src\traditional\stdclib\memcpy.asm
       _D10KTCYXCODE_0010   0x00ce1e    program     static D:\3.43\pic18-lt\cxx-framework\src\traditional\delays\d10ktcyx.asm
       _D10KTCYXCODE_001C   0x00ce2a    program     static D:\3.43\pic18-lt\cxx-framework\src\traditional\delays\d10ktcyx.asm
                 __FpExit   0x00b952    program     extern D:\3.43\pic18-lt\cxx-framework\src\traditional\math\packFP.asm
                 __FpPack   0x00b97e    program     extern D:\3.43\pic18-lt\cxx-framework\src\traditional\math\packFP.asm
            __FpReturnNaN   0x00b946    program     extern D:\3.43\pic18-lt\cxx-framework\src\traditional\math\packFP.asm
         __FpReturnNegInf   0x00b958    program     extern D:\3.43\pic18-lt\cxx-framework\src\traditional\math\packFP.asm
        __FpReturnNegZero   0x00b970    program     extern D:\3.43\pic18-lt\cxx-framework\src\traditional\math\packFP.asm
         __FpReturnPosInf   0x00b95e    program     extern D:\3.43\pic18-lt\cxx-framework\src\traditional\math\packFP.asm
        __FpReturnPosZero   0x00b978    program     extern D:\3.43\pic18-lt\cxx-framework\src\traditional\math\packFP.asm
        __FpReturnSignInf   0x00b954    program     extern D:\3.43\pic18-lt\cxx-framework\src\traditional\math\packFP.asm
       __FpReturnSignZero   0x00b96c    program     extern D:\3.43\pic18-lt\cxx-framework\src\traditional\math\packFP.asm
              __FpReturnW   0x00b9d6    program     extern D:\3.43\pic18-lt\cxx-framework\src\traditional\math\packFP.asm
              __FpUnPackA   0x00b9f6    program     extern D:\3.43\pic18-lt\cxx-framework\src\traditional\math\UnpackFP.asm
              __FpUnPackB   0x00ba26    program     extern D:\3.43\pic18-lt\cxx-framework\src\traditional\math\UnpackFP.asm
           ___?:_lbl00023   0x000096    program     static                          
           ___?:_lbl00024   0x000094    program     static                          
           ___?:_lbl00025   0x0000fe    program     static                          
           ___?:_lbl00026   0x0000f2    program     static                          
           ___?:_lbl00027   0x000156    program     static                          
           ___?:_lbl00028   0x00014a    program     static                          
           ___?:_lbl00046   0x000368    program     static                          
           ___?:_lbl00047   0x000366    program     static                          
       ___case_0_lbl00168   0x00503a    program     static                          
       ___case_1_lbl00173   0x00510c    program     static                          
       ___case_2_lbl00183   0x005200    program     static                          
       ___case_3_lbl00190   0x0053e6    program     static                          
       ___case_4_lbl00192   0x0055c6    program     static                          
           ___do_lbl00002   0x00cafa    program     static                          
           ___do_lbl00003   0x00cafe    program     static                          
           ___do_lbl00004   0x00cadc    program     static                          
         ___else_lbl00035   0x000284    program     static                          
         ___else_lbl00078   0x00052c    program     static                          
         ___else_lbl00106   0x00071c    program     static                          
         ___else_lbl00164   0x005004    program     static                          
         ___else_lbl00182   0x005236    program     static                          
         ___else_lbl00187   0x00552c    program     static                          
         ___else_lbl00189   0x005416    program     static                          
          ___for_lbl00019   0x00ad74    program     static                          
          ___for_lbl00020   0x00ad78    program     static                          
          ___for_lbl00021   0x00ad3c    program     static                          
          ___for_lbl00079   0x0006f8    program     static                          
          ___for_lbl00080   0x0006fe    program     static                          
          ___for_lbl00087   0x000614    program     static                          
          ___for_lbl00088   0x00061e    program     static                          
          ___for_lbl00091   0x00059c    program     static                          
          ___for_lbl00098   0x0006ec    program     static                          
          ___for_lbl00099   0x0006f6    program     static                          
          ___for_lbl00103   0x00065a    program     static                          
          ___for_lbl00104   0x000550    program     static                          
          ___for_lbl00113   0x00076e    program     static                          
          ___for_lbl00114   0x000778    program     static                          
          ___for_lbl00115   0x00074c    program     static                          
          ___for_lbl00177   0x005320    program     static                          
          ___for_lbl00178   0x005326    program     static                          
          ___for_lbl00179   0x0052d2    program     static                          
          ___for_lbl00219   0x00b032    program     static                          
          ___for_lbl00220   0x00b038    program     static                          
          ___for_lbl00221   0x00b00a    program     static                          
          ___for_lbl00234   0x01fdee    program     static                          
          ___for_lbl00235   0x01fdf0    program     static                          
          ___for_lbl00241   0x01fd82    program     static                          
          ___for_lbl00248   0x01fecc    program     static                          
          ___for_lbl00249   0x01fed2    program     static                          
          ___for_lbl00250   0x01fe9e    program     static                          
          ___for_lbl00251   0x01fea4    program     static                          
          ___for_lbl00252   0x01fe72    program     static                          
          ___for_lbl00255   0x01fe48    program     static                          
           ___if_lbl00005   0x009d48    program     static                          
           ___if_lbl00006   0x009d66    program     static                          
           ___if_lbl00007   0x009dfc    program     static                          
           ___if_lbl00008   0x009e02    program     static                          
           ___if_lbl00019   0x007da2    program     static                          
           ___if_lbl00020   0x007dae    program     static                          
           ___if_lbl00026   0x007e7a    program     static                          
           ___if_lbl00029   0x007ef2    program     static                          
           ___if_lbl00029   0x0001ae    program     static                          
           ___if_lbl00032   0x0001d2    program     static                          
           ___if_lbl00034   0x000288    program     static                          
           ___if_lbl00036   0x000288    program     static                          
           ___if_lbl00037   0x00028a    program     static                          
           ___if_lbl00038   0x00028a    program     static                          
           ___if_lbl00045   0x000356    program     static                          
           ___if_lbl00048   0x000394    program     static                          
           ___if_lbl00049   0x000398    program     static                          
           ___if_lbl00077   0x00054c    program     static                          
           ___if_lbl00102   0x00069e    program     static                          
           ___if_lbl00105   0x000732    program     static                          
           ___if_lbl00118   0x00079a    program     static                          
           ___if_lbl00161   0x004fc4    program     static                          
           ___if_lbl00162   0x005002    program     static                          
           ___if_lbl00163   0x00500e    program     static                          
           ___if_lbl00165   0x00500e    program     static                          
           ___if_lbl00167   0x005042    program     static                          
           ___if_lbl00169   0x005050    program     static                          
           ___if_lbl00170   0x0050be    program     static                          
           ___if_lbl00171   0x0051c0    program     static                          
           ___if_lbl00172   0x0051c2    program     static                          
           ___if_lbl00174   0x0051ca    program     static                          
           ___if_lbl00175   0x0051ec    program     static                          
           ___if_lbl00180   0x0053e4    program     static                          
           ___if_lbl00181   0x0053e4    program     static                          
           ___if_lbl00184   0x0054f2    program     static                          
           ___if_lbl00185   0x0055c4    program     static                          
           ___if_lbl00186   0x0055c4    program     static                          
           ___if_lbl00188   0x0055c4    program     static                          
           ___if_lbl00191   0x0055f2    program     static                          
           ___if_lbl00225   0x01fc52    program     static                          
           ___if_lbl00226   0x01fc66    program     static                          
           ___if_lbl00227   0x01fc70    program     static                          
           ___if_lbl00230   0x01fd2a    program     static                          
           ___if_lbl00231   0x01fd3e    program     static                          
           ___if_lbl00236   0x01fd96    program     static                          
           ___if_lbl00237   0x01fdd4    program     static                          
           ___if_lbl00238   0x01fdee    program     static                          
           ___if_lbl00239   0x01fdee    program     static                          
           ___if_lbl00240   0x01fdee    program     static                          
           ___if_lbl00242   0x01fe12    program     static                          
           ___if_lbl00247   0x01fe44    program     static                          
       ___return_lbl00000   0x009e4c    program     static                          
       ___return_lbl00000   0x000004    program     static                          
       ___return_lbl00000   0x007c28    program     static                          
       ___return_lbl00000   0x00cd58    program     static                          
       ___return_lbl00000   0x00cda0    program     static                          
       ___return_lbl00000   0x00ce66    program     static                          
       ___return_lbl00000   0x00ceca    program     static                          
       ___return_lbl00001   0x00cb00    program     static                          
       ___return_lbl00001   0x00ceae    program     static                          
       ___return_lbl00002   0x00cc50    program     static                          
       ___return_lbl00002   0x00001c    program     static                          
       ___return_lbl00003   0x00000c    program     static                          
       ___return_lbl00018   0x00ad78    program     static                          
       ___return_lbl00018   0x007efa    program     static                          
       ___return_lbl00022   0x0003aa    program     static                          
       ___return_lbl00068   0x0007a0    program     static                          
       ___return_lbl00078   0x00837a    program     static                          
       ___return_lbl00079   0x0083be    program     static                          
       ___return_lbl00082   0x008414    program     static                          
       ___return_lbl00085   0x008462    program     static                          
       ___return_lbl00088   0x0084b0    program     static                          
       ___return_lbl00160   0x005616    program     static                          
       ___return_lbl00213   0x00aff2    program     static                          
       ___return_lbl00218   0x00b066    program     static                          
       ___return_lbl00224   0x01fee8    program     static                          
       ___return_lbl00256   0x01ff30    program     static                          
   ___switchexit_lbl00166   0x005616    program     static                          
        ___while_lbl00001   0x007b3c    program     static                          
        ___while_lbl00001   0x009bdc    program     static                          
        ___while_lbl00002   0x007b42    program     static                          
        ___while_lbl00002   0x009e04    program     static                          
        ___while_lbl00003   0x009be4    program     static                          
        ___while_lbl00004   0x009be8    program     static                          
        ___while_lbl00030   0x0001b0    program     static                          
        ___while_lbl00031   0x0003aa    program     static                          
        ___while_lbl00039   0x0002a0    program     static                          
        ___while_lbl00040   0x000354    program     static                          
        ___while_lbl00041   0x0002c8    program     static                          
        ___while_lbl00042   0x000302    program     static                          
        ___while_lbl00043   0x000318    program     static                          
        ___while_lbl00044   0x000352    program     static                          
        ___while_lbl00069   0x0004e2    program     static                          
        ___while_lbl00070   0x0004e6    program     static                          
        ___while_lbl00071   0x0004ea    program     static                          
        ___while_lbl00072   0x0004ee    program     static                          
        ___while_lbl00073   0x0004fa    program     static                          
        ___while_lbl00074   0x0004fe    program     static                          
        ___while_lbl00075   0x000500    program     static                          
        ___while_lbl00076   0x000504    program     static                          
        ___while_lbl00080   0x00838a    program     static                          
        ___while_lbl00081   0x0083be    program     static                          
        ___while_lbl00081   0x000572    program     static                          
        ___while_lbl00082   0x000576    program     static                          
        ___while_lbl00083   0x000578    program     static                          
        ___while_lbl00083   0x0083ce    program     static                          
        ___while_lbl00084   0x00057c    program     static                          
        ___while_lbl00084   0x008414    program     static                          
        ___while_lbl00085   0x00057e    program     static                          
        ___while_lbl00086   0x008438    program     static                          
        ___while_lbl00086   0x000582    program     static                          
        ___while_lbl00087   0x00843e    program     static                          
        ___while_lbl00089   0x0005c2    program     static                          
        ___while_lbl00089   0x0084aa    program     static                          
        ___while_lbl00090   0x0005c6    program     static                          
        ___while_lbl00090   0x0084b0    program     static                          
        ___while_lbl00092   0x000630    program     static                          
        ___while_lbl00093   0x000634    program     static                          
        ___while_lbl00094   0x000636    program     static                          
        ___while_lbl00095   0x00063a    program     static                          
        ___while_lbl00096   0x00063c    program     static                          
        ___while_lbl00097   0x000640    program     static                          
        ___while_lbl00100   0x00067c    program     static                          
        ___while_lbl00101   0x000680    program     static                          
        ___while_lbl00107   0x000738    program     static                          
        ___while_lbl00108   0x00073c    program     static                          
        ___while_lbl00109   0x00073e    program     static                          
        ___while_lbl00110   0x000742    program     static                          
        ___while_lbl00111   0x000744    program     static                          
        ___while_lbl00112   0x000748    program     static                          
        ___while_lbl00116   0x000778    program     static                          
        ___while_lbl00117   0x00077c    program     static                          
        ___while_lbl00214   0x00afe6    program     static                          
        ___while_lbl00215   0x00afea    program     static                          
        ___while_lbl00216   0x00afea    program     static                          
        ___while_lbl00217   0x00afee    program     static                          
        ___while_lbl00222   0x00b05c    program     static                          
        ___while_lbl00223   0x00b060    program     static                          
        ___while_lbl00232   0x01fd4a    program     static                          
        ___while_lbl00233   0x01fee4    program     static                          
        ___while_lbl00243   0x01fe3c    program     static                          
        ___while_lbl00244   0x01fe40    program     static                          
        ___while_lbl00245   0x01fe40    program     static                          
        ___while_lbl00246   0x01fe44    program     static                          
        ___while_lbl00253   0x01fec8    program     static                          
        ___while_lbl00254   0x01fecc    program     static                          
        ___while_lbl00257   0x01fefc    program     static                          
        ___while_lbl00258   0x01ff30    program     static                          
        ___while_lbl00259   0x01ff1e    program     static                          
        ___while_lbl00260   0x01ff22    program     static                          
        ___while_lbl00261   0x01ff22    program     static                          
        ___while_lbl00262   0x01ff26    program     static                          
               __config_0   0x01fff8    program     static D:\Final\PIC_Module\Miner\Miner_Main.c
               __config_1   0x01fff9    program     static D:\Final\PIC_Module\Miner\Miner_Main.c
               __config_2   0x01fffa    program     static D:\Final\PIC_Module\Miner\Miner_Main.c
               __config_3   0x01fffb    program     static D:\Final\PIC_Module\Miner\Miner_Main.c
               __config_4   0x01fffd    program     static D:\Final\PIC_Module\Miner\Miner_Main.c
                   __init   0x00cecc    program     extern D:\3.43\pic18-lt\cxx-framework\src\traditional\stdclib\__init.c
                   __pa_0   0x00c870    program     static D:\Final\PIC_Module\Microchip\TCPIP Stack\StackTsk.c
                   __pa_0   0x00b06e    program     static D:\Final\PIC_Module\Miner\Miner_Main.c
                   __pa_0   0x00cb8a    program     static D:\Final\PIC_Module\Microchip\TCPIP Stack\Tick.c
                   __pa_0   0x00bccc    program     static D:\Final\PIC_Module\Microchip\TCPIP Stack\IP.c
                   __pa_0   0x00c9a6    program     static D:\Final\PIC_Module\Microchip\TCPIP Stack\ICMP.c
                   __pa_0   0x0036c2    program     static D:\Final\PIC_Module\Microchip\TCPIP Stack\TCP.c
                   __pa_0   0x0084da    program     static D:\Final\PIC_Module\Microchip\TCPIP Stack\ETH97J60.c
                   __pa_0   0x00ccd8    program     static D:\Final\PIC_Module\Microchip\TCPIP Stack\UART.c
                   __pa_0   0x0076fe    program     static D:\Final\PIC_Module\Miner\MySha256.c
                   __pa_0   0x00a952    program     static D:\Final\PIC_Module\Microchip\TCPIP Stack\DNS.c
                   __pa_0   0x006a92    program     static D:\Final\PIC_Module\Miner\Miner_WEB.c
                   __pa_0   0x00b57a    program     static D:\Final\PIC_Module\Microchip\TCPIP Stack\ARP.c
                   __pa_0   0x005978    program     static D:\Final\PIC_Module\Miner\GetPutWork.c
                   __pa_0   0x00a2ba    program     static D:\Final\PIC_Module\Microchip\TCPIP Stack\Helpers.c
                   __pa_0   0x0098f0    program     static D:\Final\PIC_Module\Microchip\TCPIP Stack\UDP.c
                   __pa_1   0x00771e    program     static D:\Final\PIC_Module\Miner\MySha256.c
                   __pa_1   0x006a9c    program     static D:\Final\PIC_Module\Miner\Miner_WEB.c
                   __pa_1   0x00cba4    program     static D:\Final\PIC_Module\Microchip\TCPIP Stack\Tick.c
                   __pa_1   0x00b07e    program     static D:\Final\PIC_Module\Miner\Miner_Main.c
                   __pa_1   0x00a2dc    program     static D:\Final\PIC_Module\Microchip\TCPIP Stack\Helpers.c
                   __pa_1   0x009918    program     static D:\Final\PIC_Module\Microchip\TCPIP Stack\UDP.c
                   __pa_1   0x00a958    program     static D:\Final\PIC_Module\Microchip\TCPIP Stack\DNS.c
                   __pa_1   0x00c880    program     static D:\Final\PIC_Module\Microchip\TCPIP Stack\StackTsk.c
                   __pa_1   0x00bcee    program     static D:\Final\PIC_Module\Microchip\TCPIP Stack\IP.c
                   __pa_1   0x00c9b4    program     static D:\Final\PIC_Module\Microchip\TCPIP Stack\ICMP.c
                   __pa_1   0x00b588    program     static D:\Final\PIC_Module\Microchip\TCPIP Stack\ARP.c
                   __pa_1   0x0059d4    program     static D:\Final\PIC_Module\Miner\GetPutWork.c
                   __pa_1   0x0036ea    program     static D:\Final\PIC_Module\Microchip\TCPIP Stack\TCP.c
                   __pa_1   0x0084f2    program     static D:\Final\PIC_Module\Microchip\TCPIP Stack\ETH97J60.c
                   __pa_1   0x00cce2    program     static D:\Final\PIC_Module\Microchip\TCPIP Stack\UART.c
                  __pa_10   0x008578    program     static D:\Final\PIC_Module\Microchip\TCPIP Stack\ETH97J60.c
                  __pa_10   0x00b100    program     static D:\Final\PIC_Module\Miner\Miner_Main.c
                  __pa_10   0x00a364    program     static D:\Final\PIC_Module\Microchip\TCPIP Stack\Helpers.c
                  __pa_10   0x00a9ee    program     static D:\Final\PIC_Module\Microchip\TCPIP Stack\DNS.c
                  __pa_10   0x0077a8    program     static D:\Final\PIC_Module\Miner\MySha256.c
                  __pa_10   0x00998c    program     static D:\Final\PIC_Module\Microchip\TCPIP Stack\UDP.c
                  __pa_10   0x006b7a    program     static D:\Final\PIC_Module\Miner\Miner_WEB.c
                  __pa_10   0x005a7c    program     static D:\Final\PIC_Module\Miner\GetPutWork.c
                  __pa_10   0x003840    program     static D:\Final\PIC_Module\Microchip\TCPIP Stack\TCP.c
                 __pa_100   0x003e3e    program     static D:\Final\PIC_Module\Microchip\TCPIP Stack\TCP.c
                 __pa_101   0x003e4c    program     static D:\Final\PIC_Module\Microchip\TCPIP Stack\TCP.c
                 __pa_102   0x003e5a    program     static D:\Final\PIC_Module\Microchip\TCPIP Stack\TCP.c
                 __pa_103   0x003e68    program     static D:\Final\PIC_Module\Microchip\TCPIP Stack\TCP.c
                 __pa_104   0x003e76    program     static D:\Final\PIC_Module\Microchip\TCPIP Stack\TCP.c
                 __pa_105   0x003e84    program     static D:\Final\PIC_Module\Microchip\TCPIP Stack\TCP.c
                 __pa_106   0x003e92    program     static D:\Final\PIC_Module\Microchip\TCPIP Stack\TCP.c
                 __pa_107   0x003e9c    program     static D:\Final\PIC_Module\Microchip\TCPIP Stack\TCP.c
                 __pa_108   0x003ea6    program     static D:\Final\PIC_Module\Microchip\TCPIP Stack\TCP.c
                 __pa_109   0x003eb0    program     static D:\Final\PIC_Module\Microchip\TCPIP Stack\TCP.c
                  __pa_11   0x0077c8    program     static D:\Final\PIC_Module\Miner\MySha256.c
                  __pa_11   0x00b110    program     static D:\Final\PIC_Module\Miner\Miner_Main.c
                  __pa_11   0x00a372    program     static D:\Final\PIC_Module\Microchip\TCPIP Stack\Helpers.c
                  __pa_11   0x003848    program     static D:\Final\PIC_Module\Microchip\TCPIP Stack\TCP.c
                  __pa_11   0x0099a4    program     static D:\Final\PIC_Module\Microchip\TCPIP Stack\UDP.c
                  __pa_11   0x006b82    program     static D:\Final\PIC_Module\Miner\Miner_WEB.c
                  __pa_11   0x005a92    program     static D:\Final\PIC_Module\Miner\GetPutWork.c
                  __pa_11   0x00858a    program     static D:\Final\PIC_Module\Microchip\TCPIP Stack\ETH97J60.c
                  __pa_11   0x00a9f6    program     static D:\Final\PIC_Module\Microchip\TCPIP Stack\DNS.c
                 __pa_110   0x003eba    program     static D:\Final\PIC_Module\Microchip\TCPIP Stack\TCP.c
                 __pa_111   0x003ec4    program     static D:\Final\PIC_Module\Microchip\TCPIP Stack\TCP.c
                 __pa_112   0x003ece    program     static D:\Final\PIC_Module\Microchip\TCPIP Stack\TCP.c
                 __pa_113   0x003ee2    program     static D:\Final\PIC_Module\Microchip\TCPIP Stack\TCP.c
                 __pa_114   0x003ef6    program     static D:\Final\PIC_Module\Microchip\TCPIP Stack\TCP.c
                 __pa_115   0x003f08    program     static D:\Final\PIC_Module\Microchip\TCPIP Stack\TCP.c
                 __pa_116   0x003f1a    program     static D:\Final\PIC_Module\Microchip\TCPIP Stack\TCP.c
                 __pa_117   0x003f2c    program     static D:\Final\PIC_Module\Microchip\TCPIP Stack\TCP.c
                 __pa_118   0x003f3e    program     static D:\Final\PIC_Module\Microchip\TCPIP Stack\TCP.c
                 __pa_119   0x003f50    program     static D:\Final\PIC_Module\Microchip\TCPIP Stack\TCP.c
                  __pa_12   0x00aa0e    program     static D:\Final\PIC_Module\Microchip\TCPIP Stack\DNS.c
                  __pa_12   0x0099bc    program     static D:\Final\PIC_Module\Microchip\TCPIP Stack\UDP.c
                  __pa_12   0x00a384    program     static D:\Final\PIC_Module\Microchip\TCPIP Stack\Helpers.c
                  __pa_12   0x00b11e    program     static D:\Final\PIC_Module\Miner\Miner_Main.c
                  __pa_12   0x0077e8    program     static D:\Final\PIC_Module\Miner\MySha256.c
                  __pa_12   0x005aa4    program     static D:\Final\PIC_Module\Miner\GetPutWork.c
                  __pa_12   0x006b8c    program     static D:\Final\PIC_Module\Miner\Miner_WEB.c
                  __pa_12   0x008596    program     static D:\Final\PIC_Module\Microchip\TCPIP Stack\ETH97J60.c
                  __pa_12   0x003850    program     static D:\Final\PIC_Module\Microchip\TCPIP Stack\TCP.c
                 __pa_120   0x003f62    program     static D:\Final\PIC_Module\Microchip\TCPIP Stack\TCP.c
                 __pa_121   0x003f74    program     static D:\Final\PIC_Module\Microchip\TCPIP Stack\TCP.c
                 __pa_122   0x003f86    program     static D:\Final\PIC_Module\Microchip\TCPIP Stack\TCP.c
                 __pa_123   0x003f92    program     static D:\Final\PIC_Module\Microchip\TCPIP Stack\TCP.c
                 __pa_124   0x003f9e    program     static D:\Final\PIC_Module\Microchip\TCPIP Stack\TCP.c
                 __pa_125   0x003fa8    program     static D:\Final\PIC_Module\Microchip\TCPIP Stack\TCP.c
                 __pa_126   0x003fb2    program     static D:\Final\PIC_Module\Microchip\TCPIP Stack\TCP.c
                 __pa_127   0x003fbc    program     static D:\Final\PIC_Module\Microchip\TCPIP Stack\TCP.c
                 __pa_128   0x003fc2    program     static D:\Final\PIC_Module\Microchip\TCPIP Stack\TCP.c
                 __pa_129   0x003fd2    program     static D:\Final\PIC_Module\Microchip\TCPIP Stack\TCP.c
                  __pa_13   0x0085a2    program     static D:\Final\PIC_Module\Microchip\TCPIP Stack\ETH97J60.c
                  __pa_13   0x007808    program     static D:\Final\PIC_Module\Miner\MySha256.c
                  __pa_13   0x000b9c    program     static D:\Final\PIC_Module\Miner\Miner_Main.c
                  __pa_13   0x00aa1c    program     static D:\Final\PIC_Module\Microchip\TCPIP Stack\DNS.c
                  __pa_13   0x006ba8    program     static D:\Final\PIC_Module\Miner\Miner_WEB.c
                  __pa_13   0x0099c8    program     static D:\Final\PIC_Module\Microchip\TCPIP Stack\UDP.c
                  __pa_13   0x005ab2    program     static D:\Final\PIC_Module\Miner\GetPutWork.c
                  __pa_13   0x003856    program     static D:\Final\PIC_Module\Microchip\TCPIP Stack\TCP.c
                 __pa_130   0x003fe2    program     static D:\Final\PIC_Module\Microchip\TCPIP Stack\TCP.c
                 __pa_131   0x003ff2    program     static D:\Final\PIC_Module\Microchip\TCPIP Stack\TCP.c
                 __pa_132   0x004000    program     static D:\Final\PIC_Module\Microchip\TCPIP Stack\TCP.c
                 __pa_133   0x00400e    program     static D:\Final\PIC_Module\Microchip\TCPIP Stack\TCP.c
                 __pa_134   0x00401c    program     static D:\Final\PIC_Module\Microchip\TCPIP Stack\TCP.c
                 __pa_135   0x00402a    program     static D:\Final\PIC_Module\Microchip\TCPIP Stack\TCP.c
                 __pa_136   0x004032    program     static D:\Final\PIC_Module\Microchip\TCPIP Stack\TCP.c
                 __pa_137   0x004040    program     static D:\Final\PIC_Module\Microchip\TCPIP Stack\TCP.c
                 __pa_138   0x00404e    program     static D:\Final\PIC_Module\Microchip\TCPIP Stack\TCP.c
                 __pa_139   0x00405c    program     static D:\Final\PIC_Module\Microchip\TCPIP Stack\TCP.c
                  __pa_14   0x0085b0    program     static D:\Final\PIC_Module\Microchip\TCPIP Stack\ETH97J60.c
                  __pa_14   0x003860    program     static D:\Final\PIC_Module\Microchip\TCPIP Stack\TCP.c
                  __pa_14   0x005ace    program     static D:\Final\PIC_Module\Miner\GetPutWork.c
                  __pa_14   0x0099de    program     static D:\Final\PIC_Module\Microchip\TCPIP Stack\UDP.c
                  __pa_14   0x000bce    program     static D:\Final\PIC_Module\Miner\Miner_Main.c
                  __pa_14   0x007828    program     static D:\Final\PIC_Module\Miner\MySha256.c
                  __pa_14   0x006bbc    program     static D:\Final\PIC_Module\Miner\Miner_WEB.c
                  __pa_14   0x00aa30    program     static D:\Final\PIC_Module\Microchip\TCPIP Stack\DNS.c
                 __pa_140   0x00406a    program     static D:\Final\PIC_Module\Microchip\TCPIP Stack\TCP.c
                 __pa_141   0x004078    program     static D:\Final\PIC_Module\Microchip\TCPIP Stack\TCP.c
                 __pa_142   0x004086    program     static D:\Final\PIC_Module\Microchip\TCPIP Stack\TCP.c
                 __pa_143   0x00408e    program     static D:\Final\PIC_Module\Microchip\TCPIP Stack\TCP.c
                 __pa_144   0x00409c    program     static D:\Final\PIC_Module\Microchip\TCPIP Stack\TCP.c
                 __pa_145   0x0040aa    program     static D:\Final\PIC_Module\Microchip\TCPIP Stack\TCP.c
                 __pa_146   0x0040b8    program     static D:\Final\PIC_Module\Microchip\TCPIP Stack\TCP.c
                 __pa_147   0x0040c6    program     static D:\Final\PIC_Module\Microchip\TCPIP Stack\TCP.c
                 __pa_148   0x0040d4    program     static D:\Final\PIC_Module\Microchip\TCPIP Stack\TCP.c
                 __pa_149   0x0040e2    program     static D:\Final\PIC_Module\Microchip\TCPIP Stack\TCP.c
                  __pa_15   0x000bfc    program     static D:\Final\PIC_Module\Miner\Miner_Main.c
                  __pa_15   0x0085be    program     static D:\Final\PIC_Module\Microchip\TCPIP Stack\ETH97J60.c
                  __pa_15   0x003868    program     static D:\Final\PIC_Module\Microchip\TCPIP Stack\TCP.c
                  __pa_15   0x005ae6    program     static D:\Final\PIC_Module\Miner\GetPutWork.c
                  __pa_15   0x0099ea    program     static D:\Final\PIC_Module\Microchip\TCPIP Stack\UDP.c
                  __pa_15   0x006bc6    program     static D:\Final\PIC_Module\Miner\Miner_WEB.c
                  __pa_15   0x00aa42    program     static D:\Final\PIC_Module\Microchip\TCPIP Stack\DNS.c
                  __pa_15   0x007848    program     static D:\Final\PIC_Module\Miner\MySha256.c
                 __pa_150   0x0040f0    program     static D:\Final\PIC_Module\Microchip\TCPIP Stack\TCP.c
                 __pa_151   0x0040fa    program     static D:\Final\PIC_Module\Microchip\TCPIP Stack\TCP.c
                 __pa_152   0x004104    program     static D:\Final\PIC_Module\Microchip\TCPIP Stack\TCP.c
                 __pa_153   0x00410e    program     static D:\Final\PIC_Module\Microchip\TCPIP Stack\TCP.c
                 __pa_154   0x004118    program     static D:\Final\PIC_Module\Microchip\TCPIP Stack\TCP.c
                 __pa_155   0x004122    program     static D:\Final\PIC_Module\Microchip\TCPIP Stack\TCP.c
                 __pa_156   0x00412c    program     static D:\Final\PIC_Module\Microchip\TCPIP Stack\TCP.c
                 __pa_157   0x004136    program     static D:\Final\PIC_Module\Microchip\TCPIP Stack\TCP.c
                 __pa_158   0x00413e    program     static D:\Final\PIC_Module\Microchip\TCPIP Stack\TCP.c
                 __pa_159   0x004146    program     static D:\Final\PIC_Module\Microchip\TCPIP Stack\TCP.c
                  __pa_16   0x007868    program     static D:\Final\PIC_Module\Miner\MySha256.c
                  __pa_16   0x0099f4    program     static D:\Final\PIC_Module\Microchip\TCPIP Stack\UDP.c
                  __pa_16   0x005af4    program     static D:\Final\PIC_Module\Miner\GetPutWork.c
                  __pa_16   0x006bf4    program     static D:\Final\PIC_Module\Miner\Miner_WEB.c
                  __pa_16   0x003870    program     static D:\Final\PIC_Module\Microchip\TCPIP Stack\TCP.c
                  __pa_16   0x00aa4a    program     static D:\Final\PIC_Module\Microchip\TCPIP Stack\DNS.c
                  __pa_16   0x000c0a    program     static D:\Final\PIC_Module\Miner\Miner_Main.c
                  __pa_16   0x0085cc    program     static D:\Final\PIC_Module\Microchip\TCPIP Stack\ETH97J60.c
                 __pa_160   0x004150    program     static D:\Final\PIC_Module\Microchip\TCPIP Stack\TCP.c
                 __pa_161   0x00416c    program     static D:\Final\PIC_Module\Microchip\TCPIP Stack\TCP.c
                 __pa_162   0x00417c    program     static D:\Final\PIC_Module\Microchip\TCPIP Stack\TCP.c
                 __pa_163   0x00418c    program     static D:\Final\PIC_Module\Microchip\TCPIP Stack\TCP.c
                 __pa_164   0x00419a    program     static D:\Final\PIC_Module\Microchip\TCPIP Stack\TCP.c
                 __pa_165   0x0041a4    program     static D:\Final\PIC_Module\Microchip\TCPIP Stack\TCP.c
                 __pa_166   0x0041ce    program     static D:\Final\PIC_Module\Microchip\TCPIP Stack\TCP.c
                 __pa_167   0x0041e4    program     static D:\Final\PIC_Module\Microchip\TCPIP Stack\TCP.c
                 __pa_168   0x0041fa    program     static D:\Final\PIC_Module\Microchip\TCPIP Stack\TCP.c
                 __pa_169   0x004208    program     static D:\Final\PIC_Module\Microchip\TCPIP Stack\TCP.c
                  __pa_17   0x006c0e    program     static D:\Final\PIC_Module\Miner\Miner_WEB.c
                  __pa_17   0x0085da    program     static D:\Final\PIC_Module\Microchip\TCPIP Stack\ETH97J60.c
                  __pa_17   0x000c1e    program     static D:\Final\PIC_Module\Miner\Miner_Main.c
                  __pa_17   0x00387c    program     static D:\Final\PIC_Module\Microchip\TCPIP Stack\TCP.c
                  __pa_17   0x00aa54    program     static D:\Final\PIC_Module\Microchip\TCPIP Stack\DNS.c
                  __pa_17   0x005b06    program     static D:\Final\PIC_Module\Miner\GetPutWork.c
                  __pa_17   0x009a02    program     static D:\Final\PIC_Module\Microchip\TCPIP Stack\UDP.c
                  __pa_17   0x007888    program     static D:\Final\PIC_Module\Miner\MySha256.c
                 __pa_170   0x004210    program     static D:\Final\PIC_Module\Microchip\TCPIP Stack\TCP.c
                 __pa_171   0x00421c    program     static D:\Final\PIC_Module\Microchip\TCPIP Stack\TCP.c
                 __pa_172   0x004226    program     static D:\Final\PIC_Module\Microchip\TCPIP Stack\TCP.c
                 __pa_173   0x004232    program     static D:\Final\PIC_Module\Microchip\TCPIP Stack\TCP.c
                 __pa_174   0x00423a    program     static D:\Final\PIC_Module\Microchip\TCPIP Stack\TCP.c
                 __pa_175   0x004242    program     static D:\Final\PIC_Module\Microchip\TCPIP Stack\TCP.c
                 __pa_176   0x004258    program     static D:\Final\PIC_Module\Microchip\TCPIP Stack\TCP.c
                 __pa_177   0x004274    program     static D:\Final\PIC_Module\Microchip\TCPIP Stack\TCP.c
                 __pa_178   0x004290    program     static D:\Final\PIC_Module\Microchip\TCPIP Stack\TCP.c
                 __pa_179   0x0042a4    program     static D:\Final\PIC_Module\Microchip\TCPIP Stack\TCP.c
                  __pa_18   0x005b0e    program     static D:\Final\PIC_Module\Miner\GetPutWork.c
                  __pa_18   0x00aa5e    program     static D:\Final\PIC_Module\Microchip\TCPIP Stack\DNS.c
                  __pa_18   0x0078b0    program     static D:\Final\PIC_Module\Miner\MySha256.c
                  __pa_18   0x0085e2    program     static D:\Final\PIC_Module\Microchip\TCPIP Stack\ETH97J60.c
                  __pa_18   0x006c14    program     static D:\Final\PIC_Module\Miner\Miner_WEB.c
                  __pa_18   0x000c34    program     static D:\Final\PIC_Module\Miner\Miner_Main.c
                  __pa_18   0x009a14    program     static D:\Final\PIC_Module\Microchip\TCPIP Stack\UDP.c
                  __pa_18   0x003896    program     static D:\Final\PIC_Module\Microchip\TCPIP Stack\TCP.c
                 __pa_180   0x0042b2    program     static D:\Final\PIC_Module\Microchip\TCPIP Stack\TCP.c
                 __pa_181   0x0042bc    program     static D:\Final\PIC_Module\Microchip\TCPIP Stack\TCP.c
                 __pa_182   0x0042c2    program     static D:\Final\PIC_Module\Microchip\TCPIP Stack\TCP.c
                 __pa_183   0x0042cc    program     static D:\Final\PIC_Module\Microchip\TCPIP Stack\TCP.c
                 __pa_184   0x0042d6    program     static D:\Final\PIC_Module\Microchip\TCPIP Stack\TCP.c
                 __pa_185   0x0042f0    program     static D:\Final\PIC_Module\Microchip\TCPIP Stack\TCP.c
                 __pa_186   0x004306    program     static D:\Final\PIC_Module\Microchip\TCPIP Stack\TCP.c
                 __pa_187   0x00430e    program     static D:\Final\PIC_Module\Microchip\TCPIP Stack\TCP.c
                 __pa_188   0x004318    program     static D:\Final\PIC_Module\Microchip\TCPIP Stack\TCP.c
                 __pa_189   0x004324    program     static D:\Final\PIC_Module\Microchip\TCPIP Stack\TCP.c
                  __pa_19   0x005b28    program     static D:\Final\PIC_Module\Miner\GetPutWork.c
                  __pa_19   0x0038a2    program     static D:\Final\PIC_Module\Microchip\TCPIP Stack\TCP.c
                  __pa_19   0x009a26    program     static D:\Final\PIC_Module\Microchip\TCPIP Stack\UDP.c
                  __pa_19   0x0085ec    program     static D:\Final\PIC_Module\Microchip\TCPIP Stack\ETH97J60.c
                  __pa_19   0x0078c4    program     static D:\Final\PIC_Module\Miner\MySha256.c
                  __pa_19   0x000c4a    program     static D:\Final\PIC_Module\Miner\Miner_Main.c
                  __pa_19   0x006c1a    program     static D:\Final\PIC_Module\Miner\Miner_WEB.c
                  __pa_19   0x00aa6e    program     static D:\Final\PIC_Module\Microchip\TCPIP Stack\DNS.c
                 __pa_190   0x004338    program     static D:\Final\PIC_Module\Microchip\TCPIP Stack\TCP.c
                 __pa_191   0x00434c    program     static D:\Final\PIC_Module\Microchip\TCPIP Stack\TCP.c
                 __pa_192   0x004358    program     static D:\Final\PIC_Module\Microchip\TCPIP Stack\TCP.c
                 __pa_193   0x004364    program     static D:\Final\PIC_Module\Microchip\TCPIP Stack\TCP.c
                 __pa_194   0x004370    program     static D:\Final\PIC_Module\Microchip\TCPIP Stack\TCP.c
                 __pa_195   0x00437e    program     static D:\Final\PIC_Module\Microchip\TCPIP Stack\TCP.c
                 __pa_196   0x004388    program     static D:\Final\PIC_Module\Microchip\TCPIP Stack\TCP.c
                 __pa_197   0x004390    program     static D:\Final\PIC_Module\Microchip\TCPIP Stack\TCP.c
                 __pa_198   0x0043a2    program     static D:\Final\PIC_Module\Microchip\TCPIP Stack\TCP.c
                 __pa_199   0x0043b4    program     static D:\Final\PIC_Module\Microchip\TCPIP Stack\TCP.c
                   __pa_2   0x007726    program     static D:\Final\PIC_Module\Miner\MySha256.c
                   __pa_2   0x00a98a    program     static D:\Final\PIC_Module\Microchip\TCPIP Stack\DNS.c
                   __pa_2   0x00a2ee    program     static D:\Final\PIC_Module\Microchip\TCPIP Stack\Helpers.c
                   __pa_2   0x00b08e    program     static D:\Final\PIC_Module\Miner\Miner_Main.c
                   __pa_2   0x00c88c    program     static D:\Final\PIC_Module\Microchip\TCPIP Stack\StackTsk.c
                   __pa_2   0x006aa4    program     static D:\Final\PIC_Module\Miner\Miner_WEB.c
                   __pa_2   0x0084f6    program     static D:\Final\PIC_Module\Microchip\TCPIP Stack\ETH97J60.c
                   __pa_2   0x0036f8    program     static D:\Final\PIC_Module\Microchip\TCPIP Stack\TCP.c
                   __pa_2   0x00b59c    program     static D:\Final\PIC_Module\Microchip\TCPIP Stack\ARP.c
                   __pa_2   0x00c9c2    program     static D:\Final\PIC_Module\Microchip\TCPIP Stack\ICMP.c
                   __pa_2   0x00bcf4    program     static D:\Final\PIC_Module\Microchip\TCPIP Stack\IP.c
                   __pa_2   0x009920    program     static D:\Final\PIC_Module\Microchip\TCPIP Stack\UDP.c
                   __pa_2   0x0059da    program     static D:\Final\PIC_Module\Miner\GetPutWork.c
                  __pa_20   0x000c58    program     static D:\Final\PIC_Module\Miner\Miner_Main.c
                  __pa_20   0x0038b0    program     static D:\Final\PIC_Module\Microchip\TCPIP Stack\TCP.c
                  __pa_20   0x006c24    program     static D:\Final\PIC_Module\Miner\Miner_WEB.c
                  __pa_20   0x005b40    program     static D:\Final\PIC_Module\Miner\GetPutWork.c
                  __pa_20   0x009a32    program     static D:\Final\PIC_Module\Microchip\TCPIP Stack\UDP.c
                  __pa_20   0x0085f6    program     static D:\Final\PIC_Module\Microchip\TCPIP Stack\ETH97J60.c
                  __pa_20   0x00aa7a    program     static D:\Final\PIC_Module\Microchip\TCPIP Stack\DNS.c
                  __pa_20   0x0078d6    program     static D:\Final\PIC_Module\Miner\MySha256.c
                 __pa_200   0x0043c6    program     static D:\Final\PIC_Module\Microchip\TCPIP Stack\TCP.c
                 __pa_201   0x0043d4    program     static D:\Final\PIC_Module\Microchip\TCPIP Stack\TCP.c
                 __pa_202   0x0043e6    program     static D:\Final\PIC_Module\Microchip\TCPIP Stack\TCP.c
                 __pa_203   0x0043f4    program     static D:\Final\PIC_Module\Microchip\TCPIP Stack\TCP.c
                 __pa_204   0x004400    program     static D:\Final\PIC_Module\Microchip\TCPIP Stack\TCP.c
                 __pa_205   0x004410    program     static D:\Final\PIC_Module\Microchip\TCPIP Stack\TCP.c
                 __pa_206   0x004420    program     static D:\Final\PIC_Module\Microchip\TCPIP Stack\TCP.c
                 __pa_207   0x00442a    program     static D:\Final\PIC_Module\Microchip\TCPIP Stack\TCP.c
                 __pa_208   0x004434    program     static D:\Final\PIC_Module\Microchip\TCPIP Stack\TCP.c
                 __pa_209   0x00443c    program     static D:\Final\PIC_Module\Microchip\TCPIP Stack\TCP.c
                  __pa_21   0x008612    program     static D:\Final\PIC_Module\Microchip\TCPIP Stack\ETH97J60.c
                  __pa_21   0x009a3c    program     static D:\Final\PIC_Module\Microchip\TCPIP Stack\UDP.c
                  __pa_21   0x000c60    program     static D:\Final\PIC_Module\Miner\Miner_Main.c
                  __pa_21   0x0078dc    program     static D:\Final\PIC_Module\Miner\MySha256.c
                  __pa_21   0x00aa88    program     static D:\Final\PIC_Module\Microchip\TCPIP Stack\DNS.c
                  __pa_21   0x005b4c    program     static D:\Final\PIC_Module\Miner\GetPutWork.c
                  __pa_21   0x006c2c    program     static D:\Final\PIC_Module\Miner\Miner_WEB.c
                  __pa_21   0x0038c8    program     static D:\Final\PIC_Module\Microchip\TCPIP Stack\TCP.c
                 __pa_210   0x004446    program     static D:\Final\PIC_Module\Microchip\TCPIP Stack\TCP.c
                 __pa_211   0x004450    program     static D:\Final\PIC_Module\Microchip\TCPIP Stack\TCP.c
                 __pa_212   0x00445a    program     static D:\Final\PIC_Module\Microchip\TCPIP Stack\TCP.c
                 __pa_213   0x004464    program     static D:\Final\PIC_Module\Microchip\TCPIP Stack\TCP.c
                 __pa_214   0x00446c    program     static D:\Final\PIC_Module\Microchip\TCPIP Stack\TCP.c
                 __pa_215   0x00447a    program     static D:\Final\PIC_Module\Microchip\TCPIP Stack\TCP.c
                 __pa_216   0x004486    program     static D:\Final\PIC_Module\Microchip\TCPIP Stack\TCP.c
                 __pa_217   0x004494    program     static D:\Final\PIC_Module\Microchip\TCPIP Stack\TCP.c
                 __pa_218   0x0044a2    program     static D:\Final\PIC_Module\Microchip\TCPIP Stack\TCP.c
                 __pa_219   0x0044b2    program     static D:\Final\PIC_Module\Microchip\TCPIP Stack\TCP.c
                  __pa_22   0x009a4c    program     static D:\Final\PIC_Module\Microchip\TCPIP Stack\UDP.c
                  __pa_22   0x006c36    program     static D:\Final\PIC_Module\Miner\Miner_WEB.c
                  __pa_22   0x0038d2    program     static D:\Final\PIC_Module\Microchip\TCPIP Stack\TCP.c
                  __pa_22   0x005b5c    program     static D:\Final\PIC_Module\Miner\GetPutWork.c
                  __pa_22   0x000c68    program     static D:\Final\PIC_Module\Miner\Miner_Main.c
                  __pa_22   0x00861a    program     static D:\Final\PIC_Module\Microchip\TCPIP Stack\ETH97J60.c
                  __pa_22   0x00aa92    program     static D:\Final\PIC_Module\Microchip\TCPIP Stack\DNS.c
                  __pa_22   0x0078f0    program     static D:\Final\PIC_Module\Miner\MySha256.c
                 __pa_220   0x0044c0    program     static D:\Final\PIC_Module\Microchip\TCPIP Stack\TCP.c
                 __pa_221   0x0044cc    program     static D:\Final\PIC_Module\Microchip\TCPIP Stack\TCP.c
                 __pa_222   0x0044d8    program     static D:\Final\PIC_Module\Microchip\TCPIP Stack\TCP.c
                 __pa_223   0x0044e4    program     static D:\Final\PIC_Module\Microchip\TCPIP Stack\TCP.c
                 __pa_224   0x0044f0    program     static D:\Final\PIC_Module\Microchip\TCPIP Stack\TCP.c
                 __pa_225   0x0044fe    program     static D:\Final\PIC_Module\Microchip\TCPIP Stack\TCP.c
                 __pa_226   0x00450a    program     static D:\Final\PIC_Module\Microchip\TCPIP Stack\TCP.c
                 __pa_227   0x004518    program     static D:\Final\PIC_Module\Microchip\TCPIP Stack\TCP.c
                 __pa_228   0x004526    program     static D:\Final\PIC_Module\Microchip\TCPIP Stack\TCP.c
                 __pa_229   0x004534    program     static D:\Final\PIC_Module\Microchip\TCPIP Stack\TCP.c
                  __pa_23   0x006c3e    program     static D:\Final\PIC_Module\Miner\Miner_WEB.c
                  __pa_23   0x009a5a    program     static D:\Final\PIC_Module\Microchip\TCPIP Stack\UDP.c
                  __pa_23   0x005b72    program     static D:\Final\PIC_Module\Miner\GetPutWork.c
                  __pa_23   0x00aaca    program     static D:\Final\PIC_Module\Microchip\TCPIP Stack\DNS.c
                  __pa_23   0x0038fa    program     static D:\Final\PIC_Module\Microchip\TCPIP Stack\TCP.c
                  __pa_23   0x000c84    program     static D:\Final\PIC_Module\Miner\Miner_Main.c
                  __pa_23   0x008626    program     static D:\Final\PIC_Module\Microchip\TCPIP Stack\ETH97J60.c
                  __pa_23   0x0078f6    program     static D:\Final\PIC_Module\Miner\MySha256.c
                 __pa_230   0x004542    program     static D:\Final\PIC_Module\Microchip\TCPIP Stack\TCP.c
                 __pa_231   0x004550    program     static D:\Final\PIC_Module\Microchip\TCPIP Stack\TCP.c
                 __pa_232   0x004558    program     static D:\Final\PIC_Module\Microchip\TCPIP Stack\TCP.c
                 __pa_233   0x004564    program     static D:\Final\PIC_Module\Microchip\TCPIP Stack\TCP.c
                 __pa_234   0x004570    program     static D:\Final\PIC_Module\Microchip\TCPIP Stack\TCP.c
                 __pa_235   0x00457e    program     static D:\Final\PIC_Module\Microchip\TCPIP Stack\TCP.c
                 __pa_236   0x00458c    program     static D:\Final\PIC_Module\Microchip\TCPIP Stack\TCP.c
                 __pa_237   0x00459a    program     static D:\Final\PIC_Module\Microchip\TCPIP Stack\TCP.c
                 __pa_238   0x0045a6    program     static D:\Final\PIC_Module\Microchip\TCPIP Stack\TCP.c
                 __pa_239   0x0045b4    program     static D:\Final\PIC_Module\Microchip\TCPIP Stack\TCP.c
                  __pa_24   0x009a68    program     static D:\Final\PIC_Module\Microchip\TCPIP Stack\UDP.c
                  __pa_24   0x0078fc    program     static D:\Final\PIC_Module\Miner\MySha256.c
                  __pa_24   0x008630    program     static D:\Final\PIC_Module\Microchip\TCPIP Stack\ETH97J60.c
                  __pa_24   0x006c46    program     static D:\Final\PIC_Module\Miner\Miner_WEB.c
                  __pa_24   0x003906    program     static D:\Final\PIC_Module\Microchip\TCPIP Stack\TCP.c
                  __pa_24   0x000ca0    program     static D:\Final\PIC_Module\Miner\Miner_Main.c
                  __pa_24   0x005b76    program     static D:\Final\PIC_Module\Miner\GetPutWork.c
                  __pa_24   0x00aad0    program     static D:\Final\PIC_Module\Microchip\TCPIP Stack\DNS.c
                 __pa_240   0x0045c0    program     static D:\Final\PIC_Module\Microchip\TCPIP Stack\TCP.c
                 __pa_241   0x0045ce    program     static D:\Final\PIC_Module\Microchip\TCPIP Stack\TCP.c
                 __pa_242   0x0045dc    program     static D:\Final\PIC_Module\Microchip\TCPIP Stack\TCP.c
                 __pa_243   0x0045e6    program     static D:\Final\PIC_Module\Microchip\TCPIP Stack\TCP.c
                 __pa_244   0x0045f0    program     static D:\Final\PIC_Module\Microchip\TCPIP Stack\TCP.c
                 __pa_245   0x0045f8    program     static D:\Final\PIC_Module\Microchip\TCPIP Stack\TCP.c
                 __pa_246   0x004602    program     static D:\Final\PIC_Module\Microchip\TCPIP Stack\TCP.c
                 __pa_247   0x00460c    program     static D:\Final\PIC_Module\Microchip\TCPIP Stack\TCP.c
                 __pa_248   0x004616    program     static D:\Final\PIC_Module\Microchip\TCPIP Stack\TCP.c
                 __pa_249   0x004620    program     static D:\Final\PIC_Module\Microchip\TCPIP Stack\TCP.c
                  __pa_25   0x007902    program     static D:\Final\PIC_Module\Miner\MySha256.c
                  __pa_25   0x00aad8    program     static D:\Final\PIC_Module\Microchip\TCPIP Stack\DNS.c
                  __pa_25   0x008638    program     static D:\Final\PIC_Module\Microchip\TCPIP Stack\ETH97J60.c
                  __pa_25   0x005b84    program     static D:\Final\PIC_Module\Miner\GetPutWork.c
                  __pa_25   0x009a76    program     static D:\Final\PIC_Module\Microchip\TCPIP Stack\UDP.c
                  __pa_25   0x006c58    program     static D:\Final\PIC_Module\Miner\Miner_WEB.c
                  __pa_25   0x000cba    program     static D:\Final\PIC_Module\Miner\Miner_Main.c
                  __pa_25   0x003914    program     static D:\Final\PIC_Module\Microchip\TCPIP Stack\TCP.c
                 __pa_250   0x00462a    program     static D:\Final\PIC_Module\Microchip\TCPIP Stack\TCP.c
                 __pa_251   0x004632    program     static D:\Final\PIC_Module\Microchip\TCPIP Stack\TCP.c
                 __pa_252   0x00463a    program     static D:\Final\PIC_Module\Microchip\TCPIP Stack\TCP.c
                 __pa_253   0x004642    program     static D:\Final\PIC_Module\Microchip\TCPIP Stack\TCP.c
                 __pa_254   0x00464e    program     static D:\Final\PIC_Module\Microchip\TCPIP Stack\TCP.c
                 __pa_255   0x00465c    program     static D:\Final\PIC_Module\Microchip\TCPIP Stack\TCP.c
                 __pa_256   0x004666    program     static D:\Final\PIC_Module\Microchip\TCPIP Stack\TCP.c
                 __pa_257   0x00466e    program     static D:\Final\PIC_Module\Microchip\TCPIP Stack\TCP.c
                 __pa_258   0x004676    program     static D:\Final\PIC_Module\Microchip\TCPIP Stack\TCP.c
                 __pa_259   0x004686    program     static D:\Final\PIC_Module\Microchip\TCPIP Stack\TCP.c
                  __pa_26   0x009a84    program     static D:\Final\PIC_Module\Microchip\TCPIP Stack\UDP.c
                  __pa_26   0x00392a    program     static D:\Final\PIC_Module\Microchip\TCPIP Stack\TCP.c
                  __pa_26   0x00790e    program     static D:\Final\PIC_Module\Miner\MySha256.c
                  __pa_26   0x000cc8    program     static D:\Final\PIC_Module\Miner\Miner_Main.c
                  __pa_26   0x005b92    program     static D:\Final\PIC_Module\Miner\GetPutWork.c
                  __pa_26   0x00aade    program     static D:\Final\PIC_Module\Microchip\TCPIP Stack\DNS.c
                  __pa_26   0x006c66    program     static D:\Final\PIC_Module\Miner\Miner_WEB.c
                  __pa_26   0x008644    program     static D:\Final\PIC_Module\Microchip\TCPIP Stack\ETH97J60.c
                 __pa_260   0x004692    program     static D:\Final\PIC_Module\Microchip\TCPIP Stack\TCP.c
                 __pa_261   0x00469e    program     static D:\Final\PIC_Module\Microchip\TCPIP Stack\TCP.c
                 __pa_262   0x0046a6    program     static D:\Final\PIC_Module\Microchip\TCPIP Stack\TCP.c
                 __pa_263   0x0046ae    program     static D:\Final\PIC_Module\Microchip\TCPIP Stack\TCP.c
                 __pa_264   0x0046b4    program     static D:\Final\PIC_Module\Microchip\TCPIP Stack\TCP.c
                 __pa_265   0x0046c2    program     static D:\Final\PIC_Module\Microchip\TCPIP Stack\TCP.c
                 __pa_266   0x0046d0    program     static D:\Final\PIC_Module\Microchip\TCPIP Stack\TCP.c
                 __pa_267   0x0046dc    program     static D:\Final\PIC_Module\Microchip\TCPIP Stack\TCP.c
                 __pa_268   0x0046e8    program     static D:\Final\PIC_Module\Microchip\TCPIP Stack\TCP.c
                 __pa_269   0x0046f4    program     static D:\Final\PIC_Module\Microchip\TCPIP Stack\TCP.c
                  __pa_27   0x00864c    program     static D:\Final\PIC_Module\Microchip\TCPIP Stack\ETH97J60.c
                  __pa_27   0x000cd4    program     static D:\Final\PIC_Module\Miner\Miner_Main.c
                  __pa_27   0x003934    program     static D:\Final\PIC_Module\Microchip\TCPIP Stack\TCP.c
                  __pa_27   0x006c76    program     static D:\Final\PIC_Module\Miner\Miner_WEB.c
                  __pa_27   0x00aae6    program     static D:\Final\PIC_Module\Microchip\TCPIP Stack\DNS.c
                  __pa_27   0x009a92    program     static D:\Final\PIC_Module\Microchip\TCPIP Stack\UDP.c
                  __pa_27   0x005ba0    program     static D:\Final\PIC_Module\Miner\GetPutWork.c
                  __pa_27   0x00791a    program     static D:\Final\PIC_Module\Miner\MySha256.c
                 __pa_270   0x004702    program     static D:\Final\PIC_Module\Microchip\TCPIP Stack\TCP.c
                 __pa_271   0x00470a    program     static D:\Final\PIC_Module\Microchip\TCPIP Stack\TCP.c
                 __pa_272   0x004714    program     static D:\Final\PIC_Module\Microchip\TCPIP Stack\TCP.c
                 __pa_273   0x00471c    program     static D:\Final\PIC_Module\Microchip\TCPIP Stack\TCP.c
                 __pa_274   0x004726    program     static D:\Final\PIC_Module\Microchip\TCPIP Stack\TCP.c
                 __pa_275   0x004730    program     static D:\Final\PIC_Module\Microchip\TCPIP Stack\TCP.c
                  __pa_28   0x009aa0    program     static D:\Final\PIC_Module\Microchip\TCPIP Stack\UDP.c
                  __pa_28   0x007924    program     static D:\Final\PIC_Module\Miner\MySha256.c
                  __pa_28   0x005bae    program     static D:\Final\PIC_Module\Miner\GetPutWork.c
                  __pa_28   0x000cdc    program     static D:\Final\PIC_Module\Miner\Miner_Main.c
                  __pa_28   0x006c7e    program     static D:\Final\PIC_Module\Miner\Miner_WEB.c
                  __pa_28   0x00393e    program     static D:\Final\PIC_Module\Microchip\TCPIP Stack\TCP.c
                  __pa_28   0x00aaee    program     static D:\Final\PIC_Module\Microchip\TCPIP Stack\DNS.c
                  __pa_29   0x005bc0    program     static D:\Final\PIC_Module\Miner\GetPutWork.c
                  __pa_29   0x006c88    program     static D:\Final\PIC_Module\Miner\Miner_WEB.c
                  __pa_29   0x003948    program     static D:\Final\PIC_Module\Microchip\TCPIP Stack\TCP.c
                  __pa_29   0x000cea    program     static D:\Final\PIC_Module\Miner\Miner_Main.c
                  __pa_29   0x007932    program     static D:\Final\PIC_Module\Miner\MySha256.c
                  __pa_29   0x009aaa    program     static D:\Final\PIC_Module\Microchip\TCPIP Stack\UDP.c
                  __pa_29   0x00aaf8    program     static D:\Final\PIC_Module\Microchip\TCPIP Stack\DNS.c
                   __pa_3   0x009936    program     static D:\Final\PIC_Module\Microchip\TCPIP Stack\UDP.c
                   __pa_3   0x00772e    program     static D:\Final\PIC_Module\Miner\MySha256.c
                   __pa_3   0x006ac2    program     static D:\Final\PIC_Module\Miner\Miner_WEB.c
                   __pa_3   0x00c898    program     static D:\Final\PIC_Module\Microchip\TCPIP Stack\StackTsk.c
                   __pa_3   0x00a2f8    program     static D:\Final\PIC_Module\Microchip\TCPIP Stack\Helpers.c
                   __pa_3   0x00a990    program     static D:\Final\PIC_Module\Microchip\TCPIP Stack\DNS.c
                   __pa_3   0x00b098    program     static D:\Final\PIC_Module\Miner\Miner_Main.c
                   __pa_3   0x0059e2    program     static D:\Final\PIC_Module\Miner\GetPutWork.c
                   __pa_3   0x00374c    program     static D:\Final\PIC_Module\Microchip\TCPIP Stack\TCP.c
                   __pa_3   0x00bd0a    program     static D:\Final\PIC_Module\Microchip\TCPIP Stack\IP.c
                   __pa_3   0x00b5a6    program     static D:\Final\PIC_Module\Microchip\TCPIP Stack\ARP.c
                   __pa_3   0x008500    program     static D:\Final\PIC_Module\Microchip\TCPIP Stack\ETH97J60.c
                  __pa_30   0x00aafe    program     static D:\Final\PIC_Module\Microchip\TCPIP Stack\DNS.c
                  __pa_30   0x006c98    program     static D:\Final\PIC_Module\Miner\Miner_WEB.c
                  __pa_30   0x009ab4    program     static D:\Final\PIC_Module\Microchip\TCPIP Stack\UDP.c
                  __pa_30   0x007940    program     static D:\Final\PIC_Module\Miner\MySha256.c
                  __pa_30   0x003952    program     static D:\Final\PIC_Module\Microchip\TCPIP Stack\TCP.c
                  __pa_30   0x000cf8    program     static D:\Final\PIC_Module\Miner\Miner_Main.c
                  __pa_30   0x005bd2    program     static D:\Final\PIC_Module\Miner\GetPutWork.c
                  __pa_31   0x00794e    program     static D:\Final\PIC_Module\Miner\MySha256.c
                  __pa_31   0x003960    program     static D:\Final\PIC_Module\Microchip\TCPIP Stack\TCP.c
                  __pa_31   0x000d02    program     static D:\Final\PIC_Module\Miner\Miner_Main.c
                  __pa_31   0x009aca    program     static D:\Final\PIC_Module\Microchip\TCPIP Stack\UDP.c
                  __pa_31   0x006cae    program     static D:\Final\PIC_Module\Miner\Miner_WEB.c
                  __pa_31   0x005be2    program     static D:\Final\PIC_Module\Miner\GetPutWork.c
                  __pa_32   0x006cb8    program     static D:\Final\PIC_Module\Miner\Miner_WEB.c
                  __pa_32   0x005bee    program     static D:\Final\PIC_Module\Miner\GetPutWork.c
                  __pa_32   0x000d10    program     static D:\Final\PIC_Module\Miner\Miner_Main.c
                  __pa_32   0x009ad8    program     static D:\Final\PIC_Module\Microchip\TCPIP Stack\UDP.c
                  __pa_32   0x007956    program     static D:\Final\PIC_Module\Miner\MySha256.c
                  __pa_32   0x00396e    program     static D:\Final\PIC_Module\Microchip\TCPIP Stack\TCP.c
                  __pa_33   0x00397c    program     static D:\Final\PIC_Module\Microchip\TCPIP Stack\TCP.c
                  __pa_33   0x009ae6    program     static D:\Final\PIC_Module\Microchip\TCPIP Stack\UDP.c
                  __pa_33   0x005bfa    program     static D:\Final\PIC_Module\Miner\GetPutWork.c
                  __pa_33   0x00795e    program     static D:\Final\PIC_Module\Miner\MySha256.c
                  __pa_33   0x006cca    program     static D:\Final\PIC_Module\Miner\Miner_WEB.c
                  __pa_34   0x009af0    program     static D:\Final\PIC_Module\Microchip\TCPIP Stack\UDP.c
                  __pa_34   0x005c06    program     static D:\Final\PIC_Module\Miner\GetPutWork.c
                  __pa_34   0x00399e    program     static D:\Final\PIC_Module\Microchip\TCPIP Stack\TCP.c
                  __pa_34   0x006cd8    program     static D:\Final\PIC_Module\Miner\Miner_WEB.c
                  __pa_34   0x007964    program     static D:\Final\PIC_Module\Miner\MySha256.c
                  __pa_35   0x0039b2    program     static D:\Final\PIC_Module\Microchip\TCPIP Stack\TCP.c
                  __pa_35   0x009afa    program     static D:\Final\PIC_Module\Microchip\TCPIP Stack\UDP.c
                  __pa_35   0x005c14    program     static D:\Final\PIC_Module\Miner\GetPutWork.c
                  __pa_35   0x00796a    program     static D:\Final\PIC_Module\Miner\MySha256.c
                  __pa_35   0x006ce6    program     static D:\Final\PIC_Module\Miner\Miner_WEB.c
                  __pa_36   0x0039c6    program     static D:\Final\PIC_Module\Microchip\TCPIP Stack\TCP.c
                  __pa_36   0x006cf4    program     static D:\Final\PIC_Module\Miner\Miner_WEB.c
                  __pa_36   0x007984    program     static D:\Final\PIC_Module\Miner\MySha256.c
                  __pa_36   0x009b06    program     static D:\Final\PIC_Module\Microchip\TCPIP Stack\UDP.c
                  __pa_36   0x005c22    program     static D:\Final\PIC_Module\Miner\GetPutWork.c
                  __pa_37   0x005c30    program     static D:\Final\PIC_Module\Miner\GetPutWork.c
                  __pa_37   0x0039e2    program     static D:\Final\PIC_Module\Microchip\TCPIP Stack\TCP.c
                  __pa_37   0x007988    program     static D:\Final\PIC_Module\Miner\MySha256.c
                  __pa_37   0x006d02    program     static D:\Final\PIC_Module\Miner\Miner_WEB.c
                  __pa_37   0x009b14    program     static D:\Final\PIC_Module\Microchip\TCPIP Stack\UDP.c
                  __pa_38   0x009b22    program     static D:\Final\PIC_Module\Microchip\TCPIP Stack\UDP.c
                  __pa_38   0x003a04    program     static D:\Final\PIC_Module\Microchip\TCPIP Stack\TCP.c
                  __pa_38   0x006d10    program     static D:\Final\PIC_Module\Miner\Miner_WEB.c
                  __pa_38   0x007992    program     static D:\Final\PIC_Module\Miner\MySha256.c
                  __pa_38   0x005c3e    program     static D:\Final\PIC_Module\Miner\GetPutWork.c
                  __pa_39   0x009b30    program     static D:\Final\PIC_Module\Microchip\TCPIP Stack\UDP.c
                  __pa_39   0x005c4c    program     static D:\Final\PIC_Module\Miner\GetPutWork.c
                  __pa_39   0x007998    program     static D:\Final\PIC_Module\Miner\MySha256.c
                  __pa_39   0x003a1e    program     static D:\Final\PIC_Module\Microchip\TCPIP Stack\TCP.c
                  __pa_39   0x006d1a    program     static D:\Final\PIC_Module\Miner\Miner_WEB.c
                   __pa_4   0x0037e2    program     static D:\Final\PIC_Module\Microchip\TCPIP Stack\TCP.c
                   __pa_4   0x00850a    program     static D:\Final\PIC_Module\Microchip\TCPIP Stack\ETH97J60.c
                   __pa_4   0x00773a    program     static D:\Final\PIC_Module\Miner\MySha256.c
                   __pa_4   0x00a300    program     static D:\Final\PIC_Module\Microchip\TCPIP Stack\Helpers.c
                   __pa_4   0x006ae8    program     static D:\Final\PIC_Module\Miner\Miner_WEB.c
                   __pa_4   0x00b0a0    program     static D:\Final\PIC_Module\Miner\Miner_Main.c
                   __pa_4   0x005a08    program     static D:\Final\PIC_Module\Miner\GetPutWork.c
                   __pa_4   0x00b5ae    program     static D:\Final\PIC_Module\Microchip\TCPIP Stack\ARP.c
                   __pa_4   0x00bd14    program     static D:\Final\PIC_Module\Microchip\TCPIP Stack\IP.c
                   __pa_4   0x00a99c    program     static D:\Final\PIC_Module\Microchip\TCPIP Stack\DNS.c
                   __pa_4   0x00993c    program     static D:\Final\PIC_Module\Microchip\TCPIP Stack\UDP.c
                  __pa_40   0x009b3e    program     static D:\Final\PIC_Module\Microchip\TCPIP Stack\UDP.c
                  __pa_40   0x0079aa    program     static D:\Final\PIC_Module\Miner\MySha256.c
                  __pa_40   0x003a2e    program     static D:\Final\PIC_Module\Microchip\TCPIP Stack\TCP.c
                  __pa_40   0x005c5a    program     static D:\Final\PIC_Module\Miner\GetPutWork.c
                  __pa_40   0x006d24    program     static D:\Final\PIC_Module\Miner\Miner_WEB.c
                  __pa_41   0x005c68    program     static D:\Final\PIC_Module\Miner\GetPutWork.c
                  __pa_41   0x0079b4    program     static D:\Final\PIC_Module\Miner\MySha256.c
                  __pa_41   0x006d36    program     static D:\Final\PIC_Module\Miner\Miner_WEB.c
                  __pa_41   0x009b48    program     static D:\Final\PIC_Module\Microchip\TCPIP Stack\UDP.c
                  __pa_41   0x003a34    program     static D:\Final\PIC_Module\Microchip\TCPIP Stack\TCP.c
                  __pa_42   0x003a44    program     static D:\Final\PIC_Module\Microchip\TCPIP Stack\TCP.c
                  __pa_42   0x006d46    program     static D:\Final\PIC_Module\Miner\Miner_WEB.c
                  __pa_42   0x005c88    program     static D:\Final\PIC_Module\Miner\GetPutWork.c
                  __pa_42   0x009b52    program     static D:\Final\PIC_Module\Microchip\TCPIP Stack\UDP.c
                  __pa_42   0x0079bc    program     static D:\Final\PIC_Module\Miner\MySha256.c
                  __pa_43   0x003a54    program     static D:\Final\PIC_Module\Microchip\TCPIP Stack\TCP.c
                  __pa_43   0x006d58    program     static D:\Final\PIC_Module\Miner\Miner_WEB.c
                  __pa_43   0x005c92    program     static D:\Final\PIC_Module\Miner\GetPutWork.c
                  __pa_43   0x0079c4    program     static D:\Final\PIC_Module\Miner\MySha256.c
                  __pa_44   0x003a5e    program     static D:\Final\PIC_Module\Microchip\TCPIP Stack\TCP.c
                  __pa_44   0x006d5c    program     static D:\Final\PIC_Module\Miner\Miner_WEB.c
                  __pa_44   0x005c9c    program     static D:\Final\PIC_Module\Miner\GetPutWork.c
                  __pa_44   0x0079cc    program     static D:\Final\PIC_Module\Miner\MySha256.c
                  __pa_45   0x0079d8    program     static D:\Final\PIC_Module\Miner\MySha256.c
                  __pa_45   0x006d64    program     static D:\Final\PIC_Module\Miner\Miner_WEB.c
                  __pa_45   0x005cae    program     static D:\Final\PIC_Module\Miner\GetPutWork.c
                  __pa_45   0x003a76    program     static D:\Final\PIC_Module\Microchip\TCPIP Stack\TCP.c
                  __pa_46   0x006d6a    program     static D:\Final\PIC_Module\Miner\Miner_WEB.c
                  __pa_46   0x0079e6    program     static D:\Final\PIC_Module\Miner\MySha256.c
                  __pa_46   0x003a88    program     static D:\Final\PIC_Module\Microchip\TCPIP Stack\TCP.c
                  __pa_46   0x005cbc    program     static D:\Final\PIC_Module\Miner\GetPutWork.c
                  __pa_47   0x0079f8    program     static D:\Final\PIC_Module\Miner\MySha256.c
                  __pa_47   0x003a92    program     static D:\Final\PIC_Module\Microchip\TCPIP Stack\TCP.c
                  __pa_47   0x005cc4    program     static D:\Final\PIC_Module\Miner\GetPutWork.c
                  __pa_47   0x006d72    program     static D:\Final\PIC_Module\Miner\Miner_WEB.c
                  __pa_48   0x005ccc    program     static D:\Final\PIC_Module\Miner\GetPutWork.c
                  __pa_48   0x007a02    program     static D:\Final\PIC_Module\Miner\MySha256.c
                  __pa_48   0x006d7e    program     static D:\Final\PIC_Module\Miner\Miner_WEB.c
                  __pa_48   0x003a9c    program     static D:\Final\PIC_Module\Microchip\TCPIP Stack\TCP.c
                  __pa_49   0x006d86    program     static D:\Final\PIC_Module\Miner\Miner_WEB.c
                  __pa_49   0x005cd6    program     static D:\Final\PIC_Module\Miner\GetPutWork.c
                  __pa_49   0x007a10    program     static D:\Final\PIC_Module\Miner\MySha256.c
                  __pa_49   0x003ab6    program     static D:\Final\PIC_Module\Microchip\TCPIP Stack\TCP.c
                   __pa_5   0x0037ec    program     static D:\Final\PIC_Module\Microchip\TCPIP Stack\TCP.c
                   __pa_5   0x00b5ba    program     static D:\Final\PIC_Module\Microchip\TCPIP Stack\ARP.c
                   __pa_5   0x009942    program     static D:\Final\PIC_Module\Microchip\TCPIP Stack\UDP.c
                   __pa_5   0x006af4    program     static D:\Final\PIC_Module\Miner\Miner_WEB.c
                   __pa_5   0x00a318    program     static D:\Final\PIC_Module\Microchip\TCPIP Stack\Helpers.c
                   __pa_5   0x00b0b8    program     static D:\Final\PIC_Module\Miner\Miner_Main.c
                   __pa_5   0x00bd1e    program     static D:\Final\PIC_Module\Microchip\TCPIP Stack\IP.c
                   __pa_5   0x005a28    program     static D:\Final\PIC_Module\Miner\GetPutWork.c
                   __pa_5   0x00a9a8    program     static D:\Final\PIC_Module\Microchip\TCPIP Stack\DNS.c
                   __pa_5   0x007750    program     static D:\Final\PIC_Module\Miner\MySha256.c
                   __pa_5   0x00852e    program     static D:\Final\PIC_Module\Microchip\TCPIP Stack\ETH97J60.c
                  __pa_50   0x006d8c    program     static D:\Final\PIC_Module\Miner\Miner_WEB.c
                  __pa_50   0x003adc    program     static D:\Final\PIC_Module\Microchip\TCPIP Stack\TCP.c
                  __pa_50   0x007a1e    program     static D:\Final\PIC_Module\Miner\MySha256.c
                  __pa_50   0x005cdc    program     static D:\Final\PIC_Module\Miner\GetPutWork.c
                  __pa_51   0x006d9a    program     static D:\Final\PIC_Module\Miner\Miner_WEB.c
                  __pa_51   0x005ce8    program     static D:\Final\PIC_Module\Miner\GetPutWork.c
                  __pa_51   0x003afc    program     static D:\Final\PIC_Module\Microchip\TCPIP Stack\TCP.c
                  __pa_51   0x007a2c    program     static D:\Final\PIC_Module\Miner\MySha256.c
                  __pa_52   0x005cf4    program     static D:\Final\PIC_Module\Miner\GetPutWork.c
                  __pa_52   0x007a34    program     static D:\Final\PIC_Module\Miner\MySha256.c
                  __pa_52   0x003b16    program     static D:\Final\PIC_Module\Microchip\TCPIP Stack\TCP.c
                  __pa_52   0x006daa    program     static D:\Final\PIC_Module\Miner\Miner_WEB.c
                  __pa_53   0x005d02    program     static D:\Final\PIC_Module\Miner\GetPutWork.c
                  __pa_53   0x007a3c    program     static D:\Final\PIC_Module\Miner\MySha256.c
                  __pa_53   0x003b22    program     static D:\Final\PIC_Module\Microchip\TCPIP Stack\TCP.c
                  __pa_53   0x006dbc    program     static D:\Final\PIC_Module\Miner\Miner_WEB.c
                  __pa_54   0x005d10    program     static D:\Final\PIC_Module\Miner\GetPutWork.c
                  __pa_54   0x003b38    program     static D:\Final\PIC_Module\Microchip\TCPIP Stack\TCP.c
                  __pa_54   0x007a44    program     static D:\Final\PIC_Module\Miner\MySha256.c
                  __pa_54   0x006dce    program     static D:\Final\PIC_Module\Miner\Miner_WEB.c
                  __pa_55   0x003b44    program     static D:\Final\PIC_Module\Microchip\TCPIP Stack\TCP.c
                  __pa_55   0x007a56    program     static D:\Final\PIC_Module\Miner\MySha256.c
                  __pa_55   0x006de0    program     static D:\Final\PIC_Module\Miner\Miner_WEB.c
                  __pa_55   0x005d16    program     static D:\Final\PIC_Module\Miner\GetPutWork.c
                  __pa_56   0x006dec    program     static D:\Final\PIC_Module\Miner\Miner_WEB.c
                  __pa_56   0x005d1e    program     static D:\Final\PIC_Module\Miner\GetPutWork.c
                  __pa_56   0x003b52    program     static D:\Final\PIC_Module\Microchip\TCPIP Stack\TCP.c
                  __pa_56   0x007a68    program     static D:\Final\PIC_Module\Miner\MySha256.c
                  __pa_57   0x003b60    program     static D:\Final\PIC_Module\Microchip\TCPIP Stack\TCP.c
                  __pa_57   0x005d28    program     static D:\Final\PIC_Module\Miner\GetPutWork.c
                  __pa_57   0x007a7a    program     static D:\Final\PIC_Module\Miner\MySha256.c
                  __pa_57   0x006df8    program     static D:\Final\PIC_Module\Miner\Miner_WEB.c
                  __pa_58   0x006e02    program     static D:\Final\PIC_Module\Miner\Miner_WEB.c
                  __pa_58   0x003b6e    program     static D:\Final\PIC_Module\Microchip\TCPIP Stack\TCP.c
                  __pa_58   0x007a8c    program     static D:\Final\PIC_Module\Miner\MySha256.c
                  __pa_58   0x005d30    program     static D:\Final\PIC_Module\Miner\GetPutWork.c
                  __pa_59   0x007a9e    program     static D:\Final\PIC_Module\Miner\MySha256.c
                  __pa_59   0x003b7c    program     static D:\Final\PIC_Module\Microchip\TCPIP Stack\TCP.c
                  __pa_59   0x006e0c    program     static D:\Final\PIC_Module\Miner\Miner_WEB.c
                  __pa_59   0x005d3c    program     static D:\Final\PIC_Module\Miner\GetPutWork.c
                   __pa_6   0x00a32a    program     static D:\Final\PIC_Module\Microchip\TCPIP Stack\Helpers.c
                   __pa_6   0x00a9b8    program     static D:\Final\PIC_Module\Microchip\TCPIP Stack\DNS.c
                   __pa_6   0x00775e    program     static D:\Final\PIC_Module\Miner\MySha256.c
                   __pa_6   0x005a36    program     static D:\Final\PIC_Module\Miner\GetPutWork.c
                   __pa_6   0x006afa    program     static D:\Final\PIC_Module\Miner\Miner_WEB.c
                   __pa_6   0x00bd26    program     static D:\Final\PIC_Module\Microchip\TCPIP Stack\IP.c
                   __pa_6   0x00853a    program     static D:\Final\PIC_Module\Microchip\TCPIP Stack\ETH97J60.c
                   __pa_6   0x00b0c8    program     static D:\Final\PIC_Module\Miner\Miner_Main.c
                   __pa_6   0x00b5c8    program     static D:\Final\PIC_Module\Microchip\TCPIP Stack\ARP.c
                   __pa_6   0x009950    program     static D:\Final\PIC_Module\Microchip\TCPIP Stack\UDP.c
                   __pa_6   0x003814    program     static D:\Final\PIC_Module\Microchip\TCPIP Stack\TCP.c
                  __pa_60   0x007aaa    program     static D:\Final\PIC_Module\Miner\MySha256.c
                  __pa_60   0x003b9a    program     static D:\Final\PIC_Module\Microchip\TCPIP Stack\TCP.c
                  __pa_60   0x006e16    program     static D:\Final\PIC_Module\Miner\Miner_WEB.c
                  __pa_61   0x003bbe    program     static D:\Final\PIC_Module\Microchip\TCPIP Stack\TCP.c
                  __pa_61   0x007ab6    program     static D:\Final\PIC_Module\Miner\MySha256.c
                  __pa_61   0x006e20    program     static D:\Final\PIC_Module\Miner\Miner_WEB.c
                  __pa_62   0x007ac2    program     static D:\Final\PIC_Module\Miner\MySha256.c
                  __pa_62   0x003bd2    program     static D:\Final\PIC_Module\Microchip\TCPIP Stack\TCP.c
                  __pa_62   0x006e2a    program     static D:\Final\PIC_Module\Miner\Miner_WEB.c
                  __pa_63   0x003be6    program     static D:\Final\PIC_Module\Microchip\TCPIP Stack\TCP.c
                  __pa_63   0x006e36    program     static D:\Final\PIC_Module\Miner\Miner_WEB.c
                  __pa_63   0x007ace    program     static D:\Final\PIC_Module\Miner\MySha256.c
                  __pa_64   0x003bf0    program     static D:\Final\PIC_Module\Microchip\TCPIP Stack\TCP.c
                  __pa_64   0x006e3e    program     static D:\Final\PIC_Module\Miner\Miner_WEB.c
                  __pa_64   0x007ae2    program     static D:\Final\PIC_Module\Miner\MySha256.c
                  __pa_65   0x003c02    program     static D:\Final\PIC_Module\Microchip\TCPIP Stack\TCP.c
                  __pa_65   0x006e44    program     static D:\Final\PIC_Module\Miner\Miner_WEB.c
                  __pa_65   0x007af4    program     static D:\Final\PIC_Module\Miner\MySha256.c
                  __pa_66   0x007b06    program     static D:\Final\PIC_Module\Miner\MySha256.c
                  __pa_66   0x003c14    program     static D:\Final\PIC_Module\Microchip\TCPIP Stack\TCP.c
                  __pa_66   0x006e4a    program     static D:\Final\PIC_Module\Miner\Miner_WEB.c
                  __pa_67   0x003c34    program     static D:\Final\PIC_Module\Microchip\TCPIP Stack\TCP.c
                  __pa_67   0x006e52    program     static D:\Final\PIC_Module\Miner\Miner_WEB.c
                  __pa_67   0x007b18    program     static D:\Final\PIC_Module\Miner\MySha256.c
                  __pa_68   0x006e5c    program     static D:\Final\PIC_Module\Miner\Miner_WEB.c
                  __pa_68   0x003c52    program     static D:\Final\PIC_Module\Microchip\TCPIP Stack\TCP.c
                  __pa_69   0x003c70    program     static D:\Final\PIC_Module\Microchip\TCPIP Stack\TCP.c
                  __pa_69   0x006e64    program     static D:\Final\PIC_Module\Miner\Miner_WEB.c
                   __pa_7   0x008548    program     static D:\Final\PIC_Module\Microchip\TCPIP Stack\ETH97J60.c
                   __pa_7   0x003822    program     static D:\Final\PIC_Module\Microchip\TCPIP Stack\TCP.c
                   __pa_7   0x00b5d2    program     static D:\Final\PIC_Module\Microchip\TCPIP Stack\ARP.c
                   __pa_7   0x00776e    program     static D:\Final\PIC_Module\Miner\MySha256.c
                   __pa_7   0x00bd36    program     static D:\Final\PIC_Module\Microchip\TCPIP Stack\IP.c
                   __pa_7   0x006b1c    program     static D:\Final\PIC_Module\Miner\Miner_WEB.c
                   __pa_7   0x00a9c8    program     static D:\Final\PIC_Module\Microchip\TCPIP Stack\DNS.c
                   __pa_7   0x005a5e    program     static D:\Final\PIC_Module\Miner\GetPutWork.c
                   __pa_7   0x00a33c    program     static D:\Final\PIC_Module\Microchip\TCPIP Stack\Helpers.c
                   __pa_7   0x00b0d6    program     static D:\Final\PIC_Module\Miner\Miner_Main.c
                   __pa_7   0x00996c    program     static D:\Final\PIC_Module\Microchip\TCPIP Stack\UDP.c
                  __pa_70   0x003c84    program     static D:\Final\PIC_Module\Microchip\TCPIP Stack\TCP.c
                  __pa_70   0x006e68    program     static D:\Final\PIC_Module\Miner\Miner_WEB.c
                  __pa_71   0x003c8e    program     static D:\Final\PIC_Module\Microchip\TCPIP Stack\TCP.c
                  __pa_71   0x006e76    program     static D:\Final\PIC_Module\Miner\Miner_WEB.c
                  __pa_72   0x006e82    program     static D:\Final\PIC_Module\Miner\Miner_WEB.c
                  __pa_72   0x003c9c    program     static D:\Final\PIC_Module\Microchip\TCPIP Stack\TCP.c
                  __pa_73   0x003caa    program     static D:\Final\PIC_Module\Microchip\TCPIP Stack\TCP.c
                  __pa_74   0x003cb6    program     static D:\Final\PIC_Module\Microchip\TCPIP Stack\TCP.c
                  __pa_75   0x003cc2    program     static D:\Final\PIC_Module\Microchip\TCPIP Stack\TCP.c
                  __pa_76   0x003ccc    program     static D:\Final\PIC_Module\Microchip\TCPIP Stack\TCP.c
                  __pa_77   0x003cd6    program     static D:\Final\PIC_Module\Microchip\TCPIP Stack\TCP.c
                  __pa_78   0x003ce0    program     static D:\Final\PIC_Module\Microchip\TCPIP Stack\TCP.c
                  __pa_79   0x003cea    program     static D:\Final\PIC_Module\Microchip\TCPIP Stack\TCP.c
                   __pa_8   0x008558    program     static D:\Final\PIC_Module\Microchip\TCPIP Stack\ETH97J60.c
                   __pa_8   0x007782    program     static D:\Final\PIC_Module\Miner\MySha256.c
                   __pa_8   0x00382e    program     static D:\Final\PIC_Module\Microchip\TCPIP Stack\TCP.c
                   __pa_8   0x006b36    program     static D:\Final\PIC_Module\Miner\Miner_WEB.c
                   __pa_8   0x00a9d4    program     static D:\Final\PIC_Module\Microchip\TCPIP Stack\DNS.c
                   __pa_8   0x005a6a    program     static D:\Final\PIC_Module\Miner\GetPutWork.c
                   __pa_8   0x00a346    program     static D:\Final\PIC_Module\Microchip\TCPIP Stack\Helpers.c
                   __pa_8   0x00b0e4    program     static D:\Final\PIC_Module\Miner\Miner_Main.c
                   __pa_8   0x00997a    program     static D:\Final\PIC_Module\Microchip\TCPIP Stack\UDP.c
                   __pa_8   0x00bd44    program     static D:\Final\PIC_Module\Microchip\TCPIP Stack\IP.c
                   __pa_8   0x00b5ee    program     static D:\Final\PIC_Module\Microchip\TCPIP Stack\ARP.c
                  __pa_80   0x003d06    program     static D:\Final\PIC_Module\Microchip\TCPIP Stack\TCP.c
                  __pa_81   0x003d20    program     static D:\Final\PIC_Module\Microchip\TCPIP Stack\TCP.c
                  __pa_82   0x003d3a    program     static D:\Final\PIC_Module\Microchip\TCPIP Stack\TCP.c
                  __pa_83   0x003d54    program     static D:\Final\PIC_Module\Microchip\TCPIP Stack\TCP.c
                  __pa_84   0x003d5c    program     static D:\Final\PIC_Module\Microchip\TCPIP Stack\TCP.c
                  __pa_85   0x003d6c    program     static D:\Final\PIC_Module\Microchip\TCPIP Stack\TCP.c
                  __pa_86   0x003d76    program     static D:\Final\PIC_Module\Microchip\TCPIP Stack\TCP.c
                  __pa_87   0x003d80    program     static D:\Final\PIC_Module\Microchip\TCPIP Stack\TCP.c
                  __pa_88   0x003d86    program     static D:\Final\PIC_Module\Microchip\TCPIP Stack\TCP.c
                  __pa_89   0x003d96    program     static D:\Final\PIC_Module\Microchip\TCPIP Stack\TCP.c
                   __pa_9   0x007788    program     static D:\Final\PIC_Module\Miner\MySha256.c
                   __pa_9   0x009982    program     static D:\Final\PIC_Module\Microchip\TCPIP Stack\UDP.c
                   __pa_9   0x00a356    program     static D:\Final\PIC_Module\Microchip\TCPIP Stack\Helpers.c
                   __pa_9   0x005a74    program     static D:\Final\PIC_Module\Miner\GetPutWork.c
                   __pa_9   0x00a9e4    program     static D:\Final\PIC_Module\Microchip\TCPIP Stack\DNS.c
                   __pa_9   0x006b70    program     static D:\Final\PIC_Module\Miner\Miner_WEB.c
                   __pa_9   0x003838    program     static D:\Final\PIC_Module\Microchip\TCPIP Stack\TCP.c
                   __pa_9   0x00b0f2    program     static D:\Final\PIC_Module\Miner\Miner_Main.c
                   __pa_9   0x00bd52    program     static D:\Final\PIC_Module\Microchip\TCPIP Stack\IP.c
                   __pa_9   0x008566    program     static D:\Final\PIC_Module\Microchip\TCPIP Stack\ETH97J60.c
                  __pa_90   0x003da2    program     static D:\Final\PIC_Module\Microchip\TCPIP Stack\TCP.c
                  __pa_91   0x003daa    program     static D:\Final\PIC_Module\Microchip\TCPIP Stack\TCP.c
                  __pa_92   0x003db8    program     static D:\Final\PIC_Module\Microchip\TCPIP Stack\TCP.c
                  __pa_93   0x003dc8    program     static D:\Final\PIC_Module\Microchip\TCPIP Stack\TCP.c
                  __pa_94   0x003dd8    program     static D:\Final\PIC_Module\Microchip\TCPIP Stack\TCP.c
                  __pa_95   0x003dee    program     static D:\Final\PIC_Module\Microchip\TCPIP Stack\TCP.c
                  __pa_96   0x003e04    program     static D:\Final\PIC_Module\Microchip\TCPIP Stack\TCP.c
                  __pa_97   0x003e1a    program     static D:\Final\PIC_Module\Microchip\TCPIP Stack\TCP.c
                  __pa_98   0x003e28    program     static D:\Final\PIC_Module\Microchip\TCPIP Stack\TCP.c
                  __pa_99   0x003e36    program     static D:\Final\PIC_Module\Microchip\TCPIP Stack\TCP.c
              __string_10   0x00c3cd    program     static D:\Final\PIC_Module\Miner\Miner_WEB.c
              __string_10   0x00c500    program     static D:\Final\PIC_Module\Miner\Miner_Main.c
              __string_10   0x00c312    program     static D:\Final\PIC_Module\Miner\GetPutWork.c
              __string_11   0x00c310    program     static D:\Final\PIC_Module\Miner\GetPutWork.c
              __string_11   0x00c3c7    program     static D:\Final\PIC_Module\Miner\Miner_WEB.c
              __string_11   0x00c4f0    program     static D:\Final\PIC_Module\Miner\Miner_Main.c
              __string_12   0x00c30e    program     static D:\Final\PIC_Module\Miner\GetPutWork.c
              __string_12   0x00c3c1    program     static D:\Final\PIC_Module\Miner\Miner_WEB.c
              __string_12   0x00c4de    program     static D:\Final\PIC_Module\Miner\Miner_Main.c
              __string_13   0x00c3bb    program     static D:\Final\PIC_Module\Miner\Miner_WEB.c
              __string_13   0x00c4bc    program     static D:\Final\PIC_Module\Miner\Miner_Main.c
              __string_13   0x00c307    program     static D:\Final\PIC_Module\Miner\GetPutWork.c
              __string_14   0x00c302    program     static D:\Final\PIC_Module\Miner\GetPutWork.c
              __string_14   0x00c3b5    program     static D:\Final\PIC_Module\Miner\Miner_WEB.c
              __string_14   0x00c4a7    program     static D:\Final\PIC_Module\Miner\Miner_Main.c
              __string_15   0x00c49e    program     static D:\Final\PIC_Module\Miner\Miner_Main.c
              __string_15   0x00c3af    program     static D:\Final\PIC_Module\Miner\Miner_WEB.c
              __string_16   0x00c498    program     static D:\Final\PIC_Module\Miner\Miner_Main.c
              __string_16   0x00c3a2    program     static D:\Final\PIC_Module\Miner\Miner_WEB.c
              __string_17   0x00c491    program     static D:\Final\PIC_Module\Miner\Miner_Main.c
              __string_17   0x00c395    program     static D:\Final\PIC_Module\Miner\Miner_WEB.c
              __string_18   0x00c47d    program     static D:\Final\PIC_Module\Miner\Miner_Main.c
              __string_18   0x00c388    program     static D:\Final\PIC_Module\Miner\Miner_WEB.c
              __string_19   0x00c37b    program     static D:\Final\PIC_Module\Miner\Miner_WEB.c
              __string_19   0x00c476    program     static D:\Final\PIC_Module\Miner\Miner_Main.c
              __string_20   0x00c462    program     static D:\Final\PIC_Module\Miner\Miner_Main.c
              __string_21   0x00c376    program     static D:\Final\PIC_Module\Miner\Miner_WEB.c
              __string_21   0x00c448    program     static D:\Final\PIC_Module\Miner\Miner_Main.c
              __string_22   0x00c372    program     static D:\Final\PIC_Module\Miner\Miner_WEB.c
              __string_22   0x00c43d    program     static D:\Final\PIC_Module\Miner\Miner_Main.c
              __string_23   0x00c36a    program     static D:\Final\PIC_Module\Miner\Miner_WEB.c
              __string_23   0x00c432    program     static D:\Final\PIC_Module\Miner\Miner_Main.c
              __string_24   0x00c362    program     static D:\Final\PIC_Module\Miner\Miner_WEB.c
              __string_24   0x00c427    program     static D:\Final\PIC_Module\Miner\Miner_Main.c
              __string_25   0x00c41c    program     static D:\Final\PIC_Module\Miner\Miner_Main.c
              __string_25   0x00c35a    program     static D:\Final\PIC_Module\Miner\Miner_WEB.c
              __string_26   0x00c351    program     static D:\Final\PIC_Module\Miner\Miner_WEB.c
              __string_26   0x00c411    program     static D:\Final\PIC_Module\Miner\Miner_Main.c
              __string_27   0x00c349    program     static D:\Final\PIC_Module\Miner\Miner_WEB.c
              __string_27   0x00c406    program     static D:\Final\PIC_Module\Miner\Miner_Main.c
              __string_28   0x00c3fb    program     static D:\Final\PIC_Module\Miner\Miner_Main.c
              __string_29   0x00c3eb    program     static D:\Final\PIC_Module\Miner\Miner_Main.c
              __string_44   0x00c317    program     static D:\Final\PIC_Module\Miner\Miner_WEB.c
               __string_6   0x00c3e5    program     static D:\Final\PIC_Module\Miner\Miner_WEB.c
               __string_7   0x00c3df    program     static D:\Final\PIC_Module\Miner\Miner_WEB.c
               __string_8   0x00c3d9    program     static D:\Final\PIC_Module\Miner\Miner_WEB.c
               __string_9   0x00c3d3    program     static D:\Final\PIC_Module\Miner\Miner_WEB.c
               __tmplbl_0   0x009c48    program     static                          
               __tmplbl_0   0x006bbc    program     static                          
               __tmplbl_0   0x0078c4    program     static                          
               __tmplbl_1   0x006bbc    program     static                          
               __tmplbl_1   0x00020c    program     static                          
              __tmplbl_10   0x009c64    program     static                          
              __tmplbl_10   0x007ed2    program     static                          
             __tmplbl_100   0x003838    program     static                          
             __tmplbl_103   0x003838    program     static                          
             __tmplbl_104   0x003838    program     static                          
              __tmplbl_11   0x007ed8    program     static                          
              __tmplbl_11   0x009ca4    program     static                          
              __tmplbl_12   0x009d08    program     static                          
             __tmplbl_128   0x003838    program     static                          
             __tmplbl_129   0x003838    program     static                          
              __tmplbl_14   0x004ffa    program     static                          
             __tmplbl_146   0x003838    program     static                          
             __tmplbl_149   0x003838    program     static                          
              __tmplbl_15   0x0051ac    program     static                          
             __tmplbl_150   0x003838    program     static                          
             __tmplbl_153   0x00331c    program     static                          
             __tmplbl_155   0x00331c    program     static                          
             __tmplbl_156   0x00332a    program     static                          
              __tmplbl_16   0x01fd20    program     static                          
              __tmplbl_16   0x005222    program     static                          
             __tmplbl_162   0x00332a    program     static                          
             __tmplbl_164   0x00332a    program     static                          
             __tmplbl_165   0x00332a    program     static                          
              __tmplbl_17   0x01fd16    program     static                          
              __tmplbl_17   0x00521c    program     static                          
              __tmplbl_18   0x01fd04    program     static                          
              __tmplbl_18   0x0055b0    program     static                          
               __tmplbl_2   0x00026c    program     static                          
               __tmplbl_2   0x007e78    program     static                          
              __tmplbl_20   0x005a74    program     static                          
             __tmplbl_215   0x00442a    program     static                          
             __tmplbl_216   0x0045b4    program     static                          
             __tmplbl_217   0x004410    program     static                          
             __tmplbl_218   0x004410    program     static                          
             __tmplbl_219   0x0045b4    program     static                          
              __tmplbl_22   0x0084f2    program     static                          
              __tmplbl_25   0x005a74    program     static                          
               __tmplbl_3   0x007e64    program     static                          
               __tmplbl_3   0x000242    program     static                          
              __tmplbl_30   0x005a74    program     static                          
              __tmplbl_37   0x005a74    program     static                          
               __tmplbl_4   0x007e4e    program     static                          
               __tmplbl_4   0x0002fc    program     static                          
              __tmplbl_44   0x005a74    program     static                          
              __tmplbl_49   0x005a74    program     static                          
               __tmplbl_5   0x00034c    program     static                          
               __tmplbl_5   0x007e3a    program     static                          
              __tmplbl_54   0x005a74    program     static                          
              __tmplbl_55   0x005a74    program     static                          
              __tmplbl_56   0x005a74    program     static                          
              __tmplbl_57   0x005a74    program     static                          
               __tmplbl_6   0x007e24    program     static                          
               __tmplbl_7   0x007e16    program     static                          
              __tmplbl_73   0x003838    program     static                          
              __tmplbl_75   0x003838    program     static                          
              __tmplbl_78   0x005a74    program     static                          
              __tmplbl_79   0x003838    program     static                          
               __tmplbl_8   0x007e14    program     static                          
              __tmplbl_80   0x003838    program     static                          
              __tmplbl_81   0x003838    program     static                          
              __tmplbl_81   0x005a74    program     static                          
              __tmplbl_82   0x003838    program     static                          
              __tmplbl_83   0x003838    program     static                          
              __tmplbl_84   0x003838    program     static                          
              __tmplbl_86   0x003838    program     static                          
              __tmplbl_88   0x003838    program     static                          
               __tmplbl_9   0x007ee0    program     static                          
               __tmplbl_9   0x009bc4    program     static                          
              __tmplbl_90   0x003838    program     static                          
              __tmplbl_91   0x003838    program     static                          
              __tmplbl_92   0x003838    program     static                          
              __tmplbl_93   0x003838    program     static                          
              __tmplbl_94   0x003838    program     static                          
              __tmplbl_95   0x003838    program     static                          
              __tmplbl_97   0x003838    program     static                          
              __tmplbl_99   0x003838    program     static                          
            __zero_memory   0x00ce68    program     extern D:\3.43\pic18-lt\cxx-framework\src\traditional\proc\p18f67j60.asm
                _do_cinit   0x00cbb4    program     extern D:\3.43\pic18-lt\cxx-framework\src\traditional\startup\c018i.c
                   _entry   0x000000    program     extern D:\3.43\pic18-lt\cxx-framework\src\traditional\startup\c018i.c
                   _false   0x00cd9c    program     static                          
                 _startup   0x00ce94    program     extern D:\3.43\pic18-lt\cxx-framework\src\traditional\startup\c018i.c
                    again   0x01fc52    program     static                          
                 alpha_in   0x004978    program     static D:\Final\PIC_Module\Miner\GetPutWork.c
                     ampa   0x009026    program     static D:\Final\PIC_Module\Miner\Miner_WEB.c
                     atoi   0x00c062    program     extern D:\3.43\pic18-lt\cxx-framework\src\traditional\stdclib\atoi.asm
                     b64e   0x00562a    program     static D:\Final\PIC_Module\Miner\GetPutWork.c
                  bin2hex   0x00ae14    program     extern D:\Final\PIC_Module\Miner\Miner_Main.c
                cPutcUART   0x01ffce    program     static D:\Final\PIC_Module\Miner\Miner_Main.c
                     cb64   0x00c69f    program     static D:\Final\PIC_Module\Miner\GetPutWork.c
                compare_l   0x00ce8a    program     static D:\3.43\pic18-lt\cxx-framework\src\traditional\proc\p18f67j60.asm
                copy_loop   0x00cc26    program     static                          
            copy_one_byte   0x00cc2c    program     static                          
                     done   0x00cc50    program     static                          
             done_copying   0x00cc3a    program     static                          
                  endloop   0x00cec6    program     static                          
                  endloop   0x00ce62    program     static                          
                    exoit   0x005e0c    program     static D:\Final\PIC_Module\Miner\Miner_WEB.c
                 fMinPool   0x01f90c    program     extern D:\Final\PIC_Module\Miner\Miner_Main.c
                 fUsrPass   0x01f94c    program     extern D:\Final\PIC_Module\Miner\Miner_Main.c
                     fapc   0x01f8e4    program     extern D:\Final\PIC_Module\Miner\Miner_Main.c
                  favicon   0x008654    program     static D:\Final\PIC_Module\Miner\Miner_WEB.c
                    fhash   0x01f9f5    program     static D:\Final\PIC_Module\Miner\Miner_Main.c
                   fnonce   0x00cdd8    program     static D:\Final\PIC_Module\Miner\Miner_Main.c
                   hPost1   0x00c569    program     static D:\Final\PIC_Module\Miner\GetPutWork.c
                   hPost2   0x00c590    program     static D:\Final\PIC_Module\Miner\GetPutWork.c
                   hPost3   0x00c60b    program     static D:\Final\PIC_Module\Miner\GetPutWork.c
                   hdrErr   0x00871a    program     static D:\Final\PIC_Module\Miner\Miner_WEB.c
                   hdrICO   0x008869    program     static D:\Final\PIC_Module\Miner\Miner_WEB.c
                    hdrOK   0x008786    program     static D:\Final\PIC_Module\Miner\Miner_WEB.c
                  hex2bin   0x00ad8c    program     extern D:\Final\PIC_Module\Miner\Miner_Main.c
                   hgwork   0x00c62e    program     static D:\Final\PIC_Module\Miner\GetPutWork.c
                 jANotInf   0x00b6f0    program     static D:\3.43\pic18-lt\cxx-framework\src\traditional\math\mulFP.asm
                 jANotInf   0x00b64a    program     static D:\3.43\pic18-lt\cxx-framework\src\traditional\math\divFP.asm
                jANotZero   0x00b65e    program     static D:\3.43\pic18-lt\cxx-framework\src\traditional\math\divFP.asm
              jBothFinite   0x00b6fe    program     static D:\3.43\pic18-lt\cxx-framework\src\traditional\math\mulFP.asm
             jBothNotZero   0x00b70a    program     static D:\3.43\pic18-lt\cxx-framework\src\traditional\math\mulFP.asm
                     jDo1   0x00c238    program     static D:\3.43\pic18-lt\cxx-framework\src\traditional\stdclib\ultoa.asm
                    jDo10   0x00c214    program     static D:\3.43\pic18-lt\cxx-framework\src\traditional\stdclib\ultoa.asm
                     jDo2   0x00c234    program     static D:\3.43\pic18-lt\cxx-framework\src\traditional\stdclib\ultoa.asm
                     jDo3   0x00c230    program     static D:\3.43\pic18-lt\cxx-framework\src\traditional\stdclib\ultoa.asm
                     jDo4   0x00c22c    program     static D:\3.43\pic18-lt\cxx-framework\src\traditional\stdclib\ultoa.asm
                     jDo5   0x00c228    program     static D:\3.43\pic18-lt\cxx-framework\src\traditional\stdclib\ultoa.asm
                     jDo6   0x00c224    program     static D:\3.43\pic18-lt\cxx-framework\src\traditional\stdclib\ultoa.asm
                     jDo7   0x00c220    program     static D:\3.43\pic18-lt\cxx-framework\src\traditional\stdclib\ultoa.asm
                     jDo8   0x00c21c    program     static D:\3.43\pic18-lt\cxx-framework\src\traditional\stdclib\ultoa.asm
                     jDo9   0x00c218    program     static D:\3.43\pic18-lt\cxx-framework\src\traditional\stdclib\ultoa.asm
                     jEnd   0x00be8c    program     static D:\3.43\pic18-lt\cxx-framework\src\traditional\stdclib\mcpyp2r.asm
                     jEnd   0x00be36    program     static D:\3.43\pic18-lt\cxx-framework\src\traditional\stdclib\memcpy.asm
                     jEnd   0x00c2ec    program     static D:\3.43\pic18-lt\cxx-framework\src\traditional\stdclib\ltobcd.asm
                     jEnd   0x00bec0    program     static D:\3.43\pic18-lt\cxx-framework\src\traditional\stdclib\memset.asm
                     jEnd   0x00bdf0    program     static D:\3.43\pic18-lt\cxx-framework\src\traditional\stdclib\mcmpp2r.asm
                     jEnd   0x00bf40    program     static D:\3.43\pic18-lt\cxx-framework\src\traditional\stdclib\scatp2r.asm
                     jEnd   0x00bd9e    program     static D:\3.43\pic18-lt\cxx-framework\src\traditional\stdclib\memcmp.asm
                     jEnd   0x00c008    program     static D:\3.43\pic18-lt\cxx-framework\src\traditional\stdclib\slenpgm.asm
                     jEnd   0x00bfb4    program     static D:\3.43\pic18-lt\cxx-framework\src\traditional\stdclib\scpyp2r.asm
                     jEnd   0x00c120    program     static D:\3.43\pic18-lt\cxx-framework\src\traditional\stdclib\atoi.asm
                     jEnd   0x00bfd0    program     static D:\3.43\pic18-lt\cxx-framework\src\traditional\stdclib\strlen.asm
                 jEndLoop   0x00c108    program     static D:\3.43\pic18-lt\cxx-framework\src\traditional\stdclib\atoi.asm
                    jExit   0x00b8d6    program     static D:\3.43\pic18-lt\cxx-framework\src\traditional\math\castFP16.asm
                    jExit   0x00b944    program     static D:\3.43\pic18-lt\cxx-framework\src\traditional\math\castFP32.asm
                jHaveZero   0x00b706    program     static D:\3.43\pic18-lt\cxx-framework\src\traditional\math\mulFP.asm
                jI2F32Beg   0x00b612    program     static D:\3.43\pic18-lt\cxx-framework\src\traditional\math\cast32FP.asm
               jInnerLoop   0x00c042    program     static D:\3.43\pic18-lt\cxx-framework\src\traditional\stdclib\sstrrp.asm
                    jLoop   0x00b918    program     static D:\3.43\pic18-lt\cxx-framework\src\traditional\math\castFP32.asm
                    jLoop   0x00be1a    program     static D:\3.43\pic18-lt\cxx-framework\src\traditional\stdclib\memcpy.asm
                    jLoop   0x00be6e    program     static D:\3.43\pic18-lt\cxx-framework\src\traditional\stdclib\mcpyp2r.asm
                    jLoop   0x00c0ba    program     static D:\3.43\pic18-lt\cxx-framework\src\traditional\stdclib\atoi.asm
                    jLoop   0x00bd82    program     static D:\3.43\pic18-lt\cxx-framework\src\traditional\stdclib\memcmp.asm
                    jLoop   0x00bdd2    program     static D:\3.43\pic18-lt\cxx-framework\src\traditional\stdclib\mcmpp2r.asm
                    jLoop   0x00b686    program     static D:\3.43\pic18-lt\cxx-framework\src\traditional\math\divFP.asm
                    jLoop   0x00b8b6    program     static D:\3.43\pic18-lt\cxx-framework\src\traditional\math\castFP16.asm
                    jLoop   0x00bff0    program     static D:\3.43\pic18-lt\cxx-framework\src\traditional\stdclib\slenpgm.asm
                    jLoop   0x00bfc6    program     static D:\3.43\pic18-lt\cxx-framework\src\traditional\stdclib\strlen.asm
                    jLoop   0x00bfaa    program     static D:\3.43\pic18-lt\cxx-framework\src\traditional\stdclib\scpyp2r.asm
                    jLoop   0x00bf6a    program     static D:\3.43\pic18-lt\cxx-framework\src\traditional\stdclib\strcpy.asm
                    jLoop   0x00bea2    program     static D:\3.43\pic18-lt\cxx-framework\src\traditional\stdclib\memset.asm
                    jLoop   0x00bf36    program     static D:\3.43\pic18-lt\cxx-framework\src\traditional\stdclib\scatp2r.asm
                    jLoop   0x00bef0    program     static D:\3.43\pic18-lt\cxx-framework\src\traditional\stdclib\strcat.asm
                    jLoop   0x00c2ae    program     static D:\3.43\pic18-lt\cxx-framework\src\traditional\stdclib\ltobcd.asm
                jLoopExit   0x00b8c6    program     static D:\3.43\pic18-lt\cxx-framework\src\traditional\math\castFP16.asm
                jLoopExit   0x00b92c    program     static D:\3.43\pic18-lt\cxx-framework\src\traditional\math\castFP32.asm
                     jMax   0x00b88a    program     static D:\3.43\pic18-lt\cxx-framework\src\traditional\math\castFP16.asm
                     jMax   0x00b8e8    program     static D:\3.43\pic18-lt\cxx-framework\src\traditional\math\castFP32.asm
                  jMaxNeg   0x00b898    program     static D:\3.43\pic18-lt\cxx-framework\src\traditional\math\castFP16.asm
                  jMaxNeg   0x00b8fa    program     static D:\3.43\pic18-lt\cxx-framework\src\traditional\math\castFP32.asm
                  jMaxPos   0x00b88e    program     static D:\3.43\pic18-lt\cxx-framework\src\traditional\math\castFP16.asm
                  jMaxPos   0x00b8ec    program     static D:\3.43\pic18-lt\cxx-framework\src\traditional\math\castFP32.asm
                    jNext   0x00b6ac    program     static D:\3.43\pic18-lt\cxx-framework\src\traditional\math\divFP.asm
                jNoAdjust   0x00b6aa    program     static D:\3.43\pic18-lt\cxx-framework\src\traditional\math\divFP.asm
                 jNoMatch   0x00c052    program     static D:\3.43\pic18-lt\cxx-framework\src\traditional\stdclib\sstrrp.asm
                  jNotInf   0x00b906    program     static D:\3.43\pic18-lt\cxx-framework\src\traditional\math\castFP32.asm
                  jNotInf   0x00b8a6    program     static D:\3.43\pic18-lt\cxx-framework\src\traditional\math\castFP16.asm
                    jNull   0x00c05c    program     static D:\3.43\pic18-lt\cxx-framework\src\traditional\stdclib\sstrrp.asm
                jNullLoop   0x00beea    program     static D:\3.43\pic18-lt\cxx-framework\src\traditional\stdclib\strcat.asm
                jNullLoop   0x00bf30    program     static D:\3.43\pic18-lt\cxx-framework\src\traditional\stdclib\scatp2r.asm
               jOuterLoop   0x00c028    program     static D:\3.43\pic18-lt\cxx-framework\src\traditional\stdclib\sstrrp.asm
                  jPkLoop   0x00b98c    program     static D:\3.43\pic18-lt\cxx-framework\src\traditional\math\packFP.asm
             jPkRoundDone   0x00b9d6    program     static D:\3.43\pic18-lt\cxx-framework\src\traditional\math\packFP.asm
               jPkRoundIt   0x00b9be    program     static D:\3.43\pic18-lt\cxx-framework\src\traditional\math\packFP.asm
             jPkShiftDone   0x00b9a8    program     static D:\3.43\pic18-lt\cxx-framework\src\traditional\math\packFP.asm
           jReturnPosInf0   0x00b962    program     static D:\3.43\pic18-lt\cxx-framework\src\traditional\math\packFP.asm
              jSignedZero   0x00b654    program     static D:\3.43\pic18-lt\cxx-framework\src\traditional\math\divFP.asm
                  jSkipWS   0x00c090    program     static D:\3.43\pic18-lt\cxx-framework\src\traditional\stdclib\atoi.asm
                 jSkipWS1   0x00c0a2    program     static D:\3.43\pic18-lt\cxx-framework\src\traditional\stdclib\atoi.asm
                jStrMatch   0x00c060    program     static D:\3.43\pic18-lt\cxx-framework\src\traditional\stdclib\sstrrp.asm
                jTstLowZ1   0x00c27c    program     static D:\3.43\pic18-lt\cxx-framework\src\traditional\stdclib\ultoa.asm
                 jTstSign   0x00c0a6    program     static D:\3.43\pic18-lt\cxx-framework\src\traditional\stdclib\atoi.asm
                jTstSign1   0x00c0b2    program     static D:\3.43\pic18-lt\cxx-framework\src\traditional\stdclib\atoi.asm
                jTstSign2   0x00c0b8    program     static D:\3.43\pic18-lt\cxx-framework\src\traditional\stdclib\atoi.asm
                jTstSign3   0x00c0ba    program     static D:\3.43\pic18-lt\cxx-framework\src\traditional\stdclib\atoi.asm
                  jUnpkA1   0x00ba00    program     static D:\3.43\pic18-lt\cxx-framework\src\traditional\math\UnpackFP.asm
                  jUnpkA2   0x00ba18    program     static D:\3.43\pic18-lt\cxx-framework\src\traditional\math\UnpackFP.asm
                 jUnpkANZ   0x00ba0e    program     static D:\3.43\pic18-lt\cxx-framework\src\traditional\math\UnpackFP.asm
                  jUnpkB1   0x00ba30    program     static D:\3.43\pic18-lt\cxx-framework\src\traditional\math\UnpackFP.asm
                  jUnpkB2   0x00ba48    program     static D:\3.43\pic18-lt\cxx-framework\src\traditional\math\UnpackFP.asm
                 jUnpkBNZ   0x00ba3e    program     static D:\3.43\pic18-lt\cxx-framework\src\traditional\math\UnpackFP.asm
                 jUnpkNaN   0x00ba22    program     static D:\3.43\pic18-lt\cxx-framework\src\traditional\math\UnpackFP.asm
                   jWr123   0x00b8f2    program     static D:\3.43\pic18-lt\cxx-framework\src\traditional\math\castFP32.asm
                  jWrZ123   0x00b902    program     static D:\3.43\pic18-lt\cxx-framework\src\traditional\math\castFP32.asm
                    jZero   0x00b900    program     static D:\3.43\pic18-lt\cxx-framework\src\traditional\math\castFP32.asm
                    jZero   0x00b8a0    program     static D:\3.43\pic18-lt\cxx-framework\src\traditional\math\castFP16.asm
               jZero1and2   0x00b966    program     static D:\3.43\pic18-lt\cxx-framework\src\traditional\math\packFP.asm
                     loop   0x00ce46    program     static                          
                     loop   0x00cd68    program     static                          
                     loop   0x00ceb8    program     static                          
                     loop   0x00cea4    program     static                          
                   loop_h   0x00ce82    program     static D:\3.43\pic18-lt\cxx-framework\src\traditional\proc\p18f67j60.asm
                   loop_l   0x00ce8c    program     static D:\3.43\pic18-lt\cxx-framework\src\traditional\proc\p18f67j60.asm
                   ltoBCD   0x00c292    program     extern D:\3.43\pic18-lt\cxx-framework\src\traditional\stdclib\ltobcd.asm
                     main   0x000040    program     extern D:\Final\PIC_Module\Miner\Miner_Main.c
                   memcmp   0x00bd62    program     extern D:\3.43\pic18-lt\cxx-framework\src\traditional\stdclib\memcmp.asm
            memcmppgm2ram   0x00bdb4    program     extern D:\3.43\pic18-lt\cxx-framework\src\traditional\stdclib\mcmpp2r.asm
                   memcpy   0x00bdf2    program     extern D:\3.43\pic18-lt\cxx-framework\src\traditional\stdclib\memcpy.asm
            memcpypgm2ram   0x00be48    program     extern D:\3.43\pic18-lt\cxx-framework\src\traditional\stdclib\mcpyp2r.asm
                   memset   0x00be8e    program     extern D:\3.43\pic18-lt\cxx-framework\src\traditional\stdclib\memset.asm
                  putUART   0x00473a    program     static D:\Final\PIC_Module\Miner\GetPutWork.c
                   putpre   0x00c65c    program     static D:\Final\PIC_Module\Miner\GetPutWork.c
                   putpst   0x00c680    program     static D:\Final\PIC_Module\Miner\GetPutWork.c
               putrsUSART   0x00cc90    program     extern D:\Final\PIC_Module\Microchip\TCPIP Stack\UART.c
                putsUSART   0x00cc60    program     extern D:\Final\PIC_Module\Microchip\TCPIP Stack\UART.c
                 rMinPool   0x01f828    program     extern D:\Final\PIC_Module\Miner\Miner_Main.c
                    rPadd   0x00c508    program     static D:\Final\PIC_Module\Miner\GetPutWork.c
                 rUsrPass   0x01f868    program     extern D:\Final\PIC_Module\Miner\Miner_Main.c
                     rand   0x00c15a    program     extern D:\3.43\pic18-lt\cxx-framework\src\traditional\stdclib\rand.asm
                     rapc   0x01f800    program     extern D:\Final\PIC_Module\Miner\Miner_Main.c
                   resNDC   0x008852    program     static D:\Final\PIC_Module\Miner\Miner_WEB.c
                   resNDD   0x0087d4    program     static D:\Final\PIC_Module\Miner\Miner_WEB.c
                   rnHost   0x00c68f    program     static D:\Final\PIC_Module\Miner\GetPutWork.c
                    sBoot   0x01f9c8    program     static D:\Final\PIC_Module\Miner\Miner_Main.c
                    sComa   0x008fee    program     static D:\Final\PIC_Module\Miner\Miner_WEB.c
                 sStarted   0x01f9d9    program     static D:\Final\PIC_Module\Miner\Miner_Main.c
                 sWebOnly   0x00cdfa    program     static D:\Final\PIC_Module\Miner\Miner_Main.c
                 s_CkHigh   0x00913b    program     static D:\Final\PIC_Module\Miner\Miner_WEB.c
                  s_CkLow   0x009137    program     static D:\Final\PIC_Module\Miner\Miner_WEB.c
                     s_EP   0x00cdeb    program     extern D:\Final\PIC_Module\Miner\Miner_Main.c
                   s_Exst   0x0090ad    program     static D:\Final\PIC_Module\Miner\Miner_WEB.c
                   s_High   0x009093    program     static D:\Final\PIC_Module\Miner\Miner_WEB.c
                   s_Lowx   0x0090a0    program     static D:\Final\PIC_Module\Miner\Miner_WEB.c
                     s_PB   0x00cddc    program     extern D:\Final\PIC_Module\Miner\Miner_Main.c
                  s_PoolA   0x009140    program     static D:\Final\PIC_Module\Miner\Miner_WEB.c
                  s_PoolB   0x009145    program     static D:\Final\PIC_Module\Miner\Miner_WEB.c
                    s_clk   0x00907e    program     static D:\Final\PIC_Module\Miner\Miner_WEB.c
                  s_cpool   0x009028    program     static D:\Final\PIC_Module\Miner\Miner_WEB.c
                   s_effi   0x00912a    program     static D:\Final\PIC_Module\Miner\Miner_WEB.c
                   s_gotn   0x0090ba    program     static D:\Final\PIC_Module\Miner\Miner_WEB.c
                    s_mhs   0x0090c4    program     static D:\Final\PIC_Module\Miner\Miner_WEB.c
                   s_subm   0x009113    program     static D:\Final\PIC_Module\Miner\Miner_WEB.c
                    s_swm   0x00906c    program     static D:\Final\PIC_Module\Miner\Miner_WEB.c
                    s_uts   0x00911f    program     static D:\Final\PIC_Module\Miner\Miner_WEB.c
                     saci   0x009016    program     static D:\Final\PIC_Module\Miner\Miner_WEB.c
           sha256_Chunk_1   0x007386    program     extern D:\Final\PIC_Module\Miner\MySha256.c
                      smt   0x0090cd    program     static D:\Final\PIC_Module\Miner\Miner_WEB.c
                    srand   0x00c14c    program     extern D:\3.43\pic18-lt\cxx-framework\src\traditional\stdclib\rand.asm
                   strcat   0x00bec2    program     extern D:\3.43\pic18-lt\cxx-framework\src\traditional\stdclib\strcat.asm
            strcatpgm2ram   0x00bf0a    program     extern D:\3.43\pic18-lt\cxx-framework\src\traditional\stdclib\scatp2r.asm
                   strcpy   0x00bf42    program     extern D:\3.43\pic18-lt\cxx-framework\src\traditional\stdclib\strcpy.asm
            strcpypgm2ram   0x00bf84    program     extern D:\3.43\pic18-lt\cxx-framework\src\traditional\stdclib\scpyp2r.asm
           stricmppgm2ram   0x00a046    program     extern D:\Final\PIC_Module\Microchip\TCPIP Stack\Helpers.c
                   strlen   0x00bfb6    program     extern D:\3.43\pic18-lt\cxx-framework\src\traditional\stdclib\strlen.asm
                strlenpgm   0x00bfd2    program     extern D:\3.43\pic18-lt\cxx-framework\src\traditional\stdclib\slenpgm.asm
             strstrrampgm   0x00c01c    program     extern D:\3.43\pic18-lt\cxx-framework\src\traditional\stdclib\sstrrp.asm
                    swapl   0x00a152    program     extern D:\Final\PIC_Module\Microchip\TCPIP Stack\Helpers.c
                    swaps   0x00a10c    program     extern D:\Final\PIC_Module\Microchip\TCPIP Stack\Helpers.c
                     test   0x00cbce    program     static                          
                    uitoa   0x009f4a    program     extern D:\Final\PIC_Module\Microchip\TCPIP Stack\Helpers.c
                    ultoa   0x00c188    program     extern D:\3.43\pic18-lt\cxx-framework\src\traditional\stdclib\ultoa.asm
                     w305   0x00c698    program     static D:\Final\PIC_Module\Miner\GetPutWork.c
                      w45   0x00c69c    program     static D:\Final\PIC_Module\Miner\GetPutWork.c
               zero_block   0x00ce82    program     static D:\3.43\pic18-lt\cxx-framework\src\traditional\proc\p18f67j60.asm
                        A   0x000e44       data     static D:\Final\PIC_Module\Miner\MySha256.c
                   ADCON0   0x000fc2       data     extern D:\3.43\pic18-lt\cxx-framework\src\traditional\proc\p18f67j60.asm
               ADCON0bits   0x000fc2       data     extern D:\3.43\pic18-lt\cxx-framework\src\traditional\proc\p18f67j60.asm
                   ADCON1   0x000fc1       data     extern D:\3.43\pic18-lt\cxx-framework\src\traditional\proc\p18f67j60.asm
               ADCON1bits   0x000fc1       data     extern D:\3.43\pic18-lt\cxx-framework\src\traditional\proc\p18f67j60.asm
                   ADCON2   0x000fc0       data     extern D:\3.43\pic18-lt\cxx-framework\src\traditional\proc\p18f67j60.asm
               ADCON2bits   0x000fc0       data     extern D:\3.43\pic18-lt\cxx-framework\src\traditional\proc\p18f67j60.asm
                    ADRES   0x000fc3       data     extern D:\3.43\pic18-lt\cxx-framework\src\traditional\proc\p18f67j60.asm
                   ADRESH   0x000fc4       data     extern D:\3.43\pic18-lt\cxx-framework\src\traditional\proc\p18f67j60.asm
                   ADRESL   0x000fc3       data     extern D:\3.43\pic18-lt\cxx-framework\src\traditional\proc\p18f67j60.asm
                AppConfig   0x0007e8       data     extern D:\Final\PIC_Module\Miner\GetPutWork.c
                        B   0x000e48       data     static D:\Final\PIC_Module\Miner\MySha256.c
                  BAUDCON   0x000f7e       data     extern D:\3.43\pic18-lt\cxx-framework\src\traditional\proc\p18f67j60.asm
                 BAUDCON1   0x000f7e       data     extern D:\3.43\pic18-lt\cxx-framework\src\traditional\proc\p18f67j60.asm
             BAUDCON1bits   0x000f7e       data     extern D:\3.43\pic18-lt\cxx-framework\src\traditional\proc\p18f67j60.asm
              BAUDCONbits   0x000f7e       data     extern D:\3.43\pic18-lt\cxx-framework\src\traditional\proc\p18f67j60.asm
                  BAUDCTL   0x000f7e       data     extern D:\3.43\pic18-lt\cxx-framework\src\traditional\proc\p18f67j60.asm
                 BAUDCTL1   0x000f7e       data     extern D:\3.43\pic18-lt\cxx-framework\src\traditional\proc\p18f67j60.asm
             BAUDCTL1bits   0x000f7e       data     extern D:\3.43\pic18-lt\cxx-framework\src\traditional\proc\p18f67j60.asm
              BAUDCTLbits   0x000f7e       data     extern D:\3.43\pic18-lt\cxx-framework\src\traditional\proc\p18f67j60.asm
                      BSR   0x000fe0       data     extern D:\3.43\pic18-lt\cxx-framework\src\traditional\proc\p18f67j60.asm
                        C   0x000e4c       data     static D:\Final\PIC_Module\Miner\MySha256.c
                  CCP1CON   0x000fbd       data     extern D:\3.43\pic18-lt\cxx-framework\src\traditional\proc\p18f67j60.asm
              CCP1CONbits   0x000fbd       data     extern D:\3.43\pic18-lt\cxx-framework\src\traditional\proc\p18f67j60.asm
                  CCP2CON   0x000fba       data     extern D:\3.43\pic18-lt\cxx-framework\src\traditional\proc\p18f67j60.asm
              CCP2CONbits   0x000fba       data     extern D:\3.43\pic18-lt\cxx-framework\src\traditional\proc\p18f67j60.asm
                  CCP3CON   0x000fb7       data     extern D:\3.43\pic18-lt\cxx-framework\src\traditional\proc\p18f67j60.asm
              CCP3CONbits   0x000fb7       data     extern D:\3.43\pic18-lt\cxx-framework\src\traditional\proc\p18f67j60.asm
                  CCP4CON   0x000f73       data     extern D:\3.43\pic18-lt\cxx-framework\src\traditional\proc\p18f67j60.asm
              CCP4CONbits   0x000f73       data     extern D:\3.43\pic18-lt\cxx-framework\src\traditional\proc\p18f67j60.asm
                  CCP5CON   0x000f70       data     extern D:\3.43\pic18-lt\cxx-framework\src\traditional\proc\p18f67j60.asm
              CCP5CONbits   0x000f70       data     extern D:\3.43\pic18-lt\cxx-framework\src\traditional\proc\p18f67j60.asm
                    CCPR1   0x000fbe       data     extern D:\3.43\pic18-lt\cxx-framework\src\traditional\proc\p18f67j60.asm
                   CCPR1H   0x000fbf       data     extern D:\3.43\pic18-lt\cxx-framework\src\traditional\proc\p18f67j60.asm
                   CCPR1L   0x000fbe       data     extern D:\3.43\pic18-lt\cxx-framework\src\traditional\proc\p18f67j60.asm
                    CCPR2   0x000fbb       data     extern D:\3.43\pic18-lt\cxx-framework\src\traditional\proc\p18f67j60.asm
                   CCPR2H   0x000fbc       data     extern D:\3.43\pic18-lt\cxx-framework\src\traditional\proc\p18f67j60.asm
                   CCPR2L   0x000fbb       data     extern D:\3.43\pic18-lt\cxx-framework\src\traditional\proc\p18f67j60.asm
                    CCPR3   0x000fb8       data     extern D:\3.43\pic18-lt\cxx-framework\src\traditional\proc\p18f67j60.asm
                   CCPR3H   0x000fb9       data     extern D:\3.43\pic18-lt\cxx-framework\src\traditional\proc\p18f67j60.asm
                   CCPR3L   0x000fb8       data     extern D:\3.43\pic18-lt\cxx-framework\src\traditional\proc\p18f67j60.asm
                    CCPR4   0x000f74       data     extern D:\3.43\pic18-lt\cxx-framework\src\traditional\proc\p18f67j60.asm
                   CCPR4H   0x000f75       data     extern D:\3.43\pic18-lt\cxx-framework\src\traditional\proc\p18f67j60.asm
                   CCPR4L   0x000f74       data     extern D:\3.43\pic18-lt\cxx-framework\src\traditional\proc\p18f67j60.asm
                    CCPR5   0x000f71       data     extern D:\3.43\pic18-lt\cxx-framework\src\traditional\proc\p18f67j60.asm
                   CCPR5H   0x000f72       data     extern D:\3.43\pic18-lt\cxx-framework\src\traditional\proc\p18f67j60.asm
                   CCPR5L   0x000f71       data     extern D:\3.43\pic18-lt\cxx-framework\src\traditional\proc\p18f67j60.asm
                    CMCON   0x000fb4       data     extern D:\3.43\pic18-lt\cxx-framework\src\traditional\proc\p18f67j60.asm
                CMCONbits   0x000fb4       data     extern D:\3.43\pic18-lt\cxx-framework\src\traditional\proc\p18f67j60.asm
                   CVRCON   0x000fb5       data     extern D:\3.43\pic18-lt\cxx-framework\src\traditional\proc\p18f67j60.asm
               CVRCONbits   0x000fb5       data     extern D:\3.43\pic18-lt\cxx-framework\src\traditional\proc\p18f67j60.asm
                    Cache   0x00019a       data     static D:\Final\PIC_Module\Microchip\TCPIP Stack\ARP.c
    CurrentPacketLocation   0x000f5b       data     static D:\Final\PIC_Module\Microchip\TCPIP Stack\ETH97J60.c
                        D   0x000e50       data     static D:\Final\PIC_Module\Miner\MySha256.c
                     DDRA   0x000f92       data     extern D:\3.43\pic18-lt\cxx-framework\src\traditional\proc\p18f67j60.asm
                 DDRAbits   0x000f92       data     extern D:\3.43\pic18-lt\cxx-framework\src\traditional\proc\p18f67j60.asm
                     DDRB   0x000f93       data     extern D:\3.43\pic18-lt\cxx-framework\src\traditional\proc\p18f67j60.asm
                 DDRBbits   0x000f93       data     extern D:\3.43\pic18-lt\cxx-framework\src\traditional\proc\p18f67j60.asm
                     DDRC   0x000f94       data     extern D:\3.43\pic18-lt\cxx-framework\src\traditional\proc\p18f67j60.asm
                 DDRCbits   0x000f94       data     extern D:\3.43\pic18-lt\cxx-framework\src\traditional\proc\p18f67j60.asm
                     DDRD   0x000f95       data     extern D:\3.43\pic18-lt\cxx-framework\src\traditional\proc\p18f67j60.asm
                 DDRDbits   0x000f95       data     extern D:\3.43\pic18-lt\cxx-framework\src\traditional\proc\p18f67j60.asm
                     DDRE   0x000f96       data     extern D:\3.43\pic18-lt\cxx-framework\src\traditional\proc\p18f67j60.asm
                 DDREbits   0x000f96       data     extern D:\3.43\pic18-lt\cxx-framework\src\traditional\proc\p18f67j60.asm
                     DDRF   0x000f97       data     extern D:\3.43\pic18-lt\cxx-framework\src\traditional\proc\p18f67j60.asm
                 DDRFbits   0x000f97       data     extern D:\3.43\pic18-lt\cxx-framework\src\traditional\proc\p18f67j60.asm
                     DDRG   0x000f98       data     extern D:\3.43\pic18-lt\cxx-framework\src\traditional\proc\p18f67j60.asm
                 DDRGbits   0x000f98       data     extern D:\3.43\pic18-lt\cxx-framework\src\traditional\proc\p18f67j60.asm
              DNSHostName   0x000182       data     static D:\Final\PIC_Module\Microchip\TCPIP Stack\DNS.c
           DNSHostNameROM   0x000184       data     static D:\Final\PIC_Module\Microchip\TCPIP Stack\DNS.c
            DelayCounter1   0x000049       data     extern D:\3.43\pic18-lt\cxx-framework\src\traditional\delays\delayd1.asm
            DelayCounter2   0x000048       data     extern D:\3.43\pic18-lt\cxx-framework\src\traditional\delays\delayd2.asm
                        E   0x000e54       data     static D:\Final\PIC_Module\Miner\MySha256.c
                  ECCP1AS   0x000fb6       data     extern D:\3.43\pic18-lt\cxx-framework\src\traditional\proc\p18f67j60.asm
              ECCP1ASbits   0x000fb6       data     extern D:\3.43\pic18-lt\cxx-framework\src\traditional\proc\p18f67j60.asm
                 ECCP1CON   0x000fbd       data     extern D:\3.43\pic18-lt\cxx-framework\src\traditional\proc\p18f67j60.asm
             ECCP1CONbits   0x000fbd       data     extern D:\3.43\pic18-lt\cxx-framework\src\traditional\proc\p18f67j60.asm
                 ECCP1DEL   0x000f79       data     extern D:\3.43\pic18-lt\cxx-framework\src\traditional\proc\p18f67j60.asm
             ECCP1DELbits   0x000f79       data     extern D:\3.43\pic18-lt\cxx-framework\src\traditional\proc\p18f67j60.asm
                  ECCP2AS   0x000f68       data     extern D:\3.43\pic18-lt\cxx-framework\src\traditional\proc\p18f67j60.asm
              ECCP2ASbits   0x000f68       data     extern D:\3.43\pic18-lt\cxx-framework\src\traditional\proc\p18f67j60.asm
                 ECCP2CON   0x000fba       data     extern D:\3.43\pic18-lt\cxx-framework\src\traditional\proc\p18f67j60.asm
             ECCP2CONbits   0x000fba       data     extern D:\3.43\pic18-lt\cxx-framework\src\traditional\proc\p18f67j60.asm
                 ECCP2DEL   0x000f67       data     extern D:\3.43\pic18-lt\cxx-framework\src\traditional\proc\p18f67j60.asm
             ECCP2DELbits   0x000f67       data     extern D:\3.43\pic18-lt\cxx-framework\src\traditional\proc\p18f67j60.asm
                  ECCP3AS   0x000f6a       data     extern D:\3.43\pic18-lt\cxx-framework\src\traditional\proc\p18f67j60.asm
              ECCP3ASbits   0x000f6a       data     extern D:\3.43\pic18-lt\cxx-framework\src\traditional\proc\p18f67j60.asm
                 ECCP3CON   0x000fb7       data     extern D:\3.43\pic18-lt\cxx-framework\src\traditional\proc\p18f67j60.asm
             ECCP3CONbits   0x000fb7       data     extern D:\3.43\pic18-lt\cxx-framework\src\traditional\proc\p18f67j60.asm
                 ECCP3DEL   0x000f69       data     extern D:\3.43\pic18-lt\cxx-framework\src\traditional\proc\p18f67j60.asm
             ECCP3DELbits   0x000f69       data     extern D:\3.43\pic18-lt\cxx-framework\src\traditional\proc\p18f67j60.asm
                    ECON1   0x000fd2       data     extern D:\3.43\pic18-lt\cxx-framework\src\traditional\proc\p18f67j60.asm
                ECON1bits   0x000fd2       data     extern D:\3.43\pic18-lt\cxx-framework\src\traditional\proc\p18f67j60.asm
                    ECON2   0x000efe       data     extern D:\3.43\pic18-lt\cxx-framework\src\traditional\proc\p18f67j60.asm
                ECON2bits   0x000efe       data     extern D:\3.43\pic18-lt\cxx-framework\src\traditional\proc\p18f67j60.asm
                    EDATA   0x000f61       data     extern D:\3.43\pic18-lt\cxx-framework\src\traditional\proc\p18f67j60.asm
                EDATAbits   0x000f61       data     extern D:\3.43\pic18-lt\cxx-framework\src\traditional\proc\p18f67j60.asm
                   EDMACS   0x000ef6       data     extern D:\3.43\pic18-lt\cxx-framework\src\traditional\proc\p18f67j60.asm
                  EDMACSH   0x000ef7       data     extern D:\3.43\pic18-lt\cxx-framework\src\traditional\proc\p18f67j60.asm
                  EDMACSL   0x000ef6       data     extern D:\3.43\pic18-lt\cxx-framework\src\traditional\proc\p18f67j60.asm
                  EDMADST   0x000ef4       data     extern D:\3.43\pic18-lt\cxx-framework\src\traditional\proc\p18f67j60.asm
                 EDMADSTH   0x000ef5       data     extern D:\3.43\pic18-lt\cxx-framework\src\traditional\proc\p18f67j60.asm
                 EDMADSTL   0x000ef4       data     extern D:\3.43\pic18-lt\cxx-framework\src\traditional\proc\p18f67j60.asm
                   EDMAND   0x000ef2       data     extern D:\3.43\pic18-lt\cxx-framework\src\traditional\proc\p18f67j60.asm
                  EDMANDH   0x000ef3       data     extern D:\3.43\pic18-lt\cxx-framework\src\traditional\proc\p18f67j60.asm
                  EDMANDL   0x000ef2       data     extern D:\3.43\pic18-lt\cxx-framework\src\traditional\proc\p18f67j60.asm
                   EDMAST   0x000ef0       data     extern D:\3.43\pic18-lt\cxx-framework\src\traditional\proc\p18f67j60.asm
                  EDMASTH   0x000ef1       data     extern D:\3.43\pic18-lt\cxx-framework\src\traditional\proc\p18f67j60.asm
                  EDMASTL   0x000ef0       data     extern D:\3.43\pic18-lt\cxx-framework\src\traditional\proc\p18f67j60.asm
                   EECON1   0x000fa6       data     extern D:\3.43\pic18-lt\cxx-framework\src\traditional\proc\p18f67j60.asm
               EECON1bits   0x000fa6       data     extern D:\3.43\pic18-lt\cxx-framework\src\traditional\proc\p18f67j60.asm
                   EECON2   0x000fa7       data     extern D:\3.43\pic18-lt\cxx-framework\src\traditional\proc\p18f67j60.asm
                  EFLOCON   0x000e97       data     extern D:\3.43\pic18-lt\cxx-framework\src\traditional\proc\p18f67j60.asm
              EFLOCONbits   0x000e97       data     extern D:\3.43\pic18-lt\cxx-framework\src\traditional\proc\p18f67j60.asm
                     EHT0   0x000ec0       data     extern D:\3.43\pic18-lt\cxx-framework\src\traditional\proc\p18f67j60.asm
                     EHT1   0x000ec1       data     extern D:\3.43\pic18-lt\cxx-framework\src\traditional\proc\p18f67j60.asm
                     EHT2   0x000ec2       data     extern D:\3.43\pic18-lt\cxx-framework\src\traditional\proc\p18f67j60.asm
                     EHT3   0x000ec3       data     extern D:\3.43\pic18-lt\cxx-framework\src\traditional\proc\p18f67j60.asm
                     EHT4   0x000ec4       data     extern D:\3.43\pic18-lt\cxx-framework\src\traditional\proc\p18f67j60.asm
                     EHT5   0x000ec5       data     extern D:\3.43\pic18-lt\cxx-framework\src\traditional\proc\p18f67j60.asm
                     EHT6   0x000ec6       data     extern D:\3.43\pic18-lt\cxx-framework\src\traditional\proc\p18f67j60.asm
                     EHT7   0x000ec7       data     extern D:\3.43\pic18-lt\cxx-framework\src\traditional\proc\p18f67j60.asm
                      EIE   0x000efb       data     extern D:\3.43\pic18-lt\cxx-framework\src\traditional\proc\p18f67j60.asm
                  EIEbits   0x000efb       data     extern D:\3.43\pic18-lt\cxx-framework\src\traditional\proc\p18f67j60.asm
                      EIR   0x000f60       data     extern D:\3.43\pic18-lt\cxx-framework\src\traditional\proc\p18f67j60.asm
                  EIRbits   0x000f60       data     extern D:\3.43\pic18-lt\cxx-framework\src\traditional\proc\p18f67j60.asm
                    EPAUS   0x000e98       data     extern D:\3.43\pic18-lt\cxx-framework\src\traditional\proc\p18f67j60.asm
                   EPAUSH   0x000e99       data     extern D:\3.43\pic18-lt\cxx-framework\src\traditional\proc\p18f67j60.asm
                   EPAUSL   0x000e98       data     extern D:\3.43\pic18-lt\cxx-framework\src\traditional\proc\p18f67j60.asm
                  EPKTCNT   0x000ed9       data     extern D:\3.43\pic18-lt\cxx-framework\src\traditional\proc\p18f67j60.asm
                    EPMCS   0x000ed0       data     extern D:\3.43\pic18-lt\cxx-framework\src\traditional\proc\p18f67j60.asm
                   EPMCSH   0x000ed1       data     extern D:\3.43\pic18-lt\cxx-framework\src\traditional\proc\p18f67j60.asm
                   EPMCSL   0x000ed0       data     extern D:\3.43\pic18-lt\cxx-framework\src\traditional\proc\p18f67j60.asm
                    EPMM0   0x000ec8       data     extern D:\3.43\pic18-lt\cxx-framework\src\traditional\proc\p18f67j60.asm
                    EPMM1   0x000ec9       data     extern D:\3.43\pic18-lt\cxx-framework\src\traditional\proc\p18f67j60.asm
                    EPMM2   0x000eca       data     extern D:\3.43\pic18-lt\cxx-framework\src\traditional\proc\p18f67j60.asm
                    EPMM3   0x000ecb       data     extern D:\3.43\pic18-lt\cxx-framework\src\traditional\proc\p18f67j60.asm
                    EPMM4   0x000ecc       data     extern D:\3.43\pic18-lt\cxx-framework\src\traditional\proc\p18f67j60.asm
                    EPMM5   0x000ecd       data     extern D:\3.43\pic18-lt\cxx-framework\src\traditional\proc\p18f67j60.asm
                    EPMM6   0x000ece       data     extern D:\3.43\pic18-lt\cxx-framework\src\traditional\proc\p18f67j60.asm
                    EPMM7   0x000ecf       data     extern D:\3.43\pic18-lt\cxx-framework\src\traditional\proc\p18f67j60.asm
                     EPMO   0x000ed4       data     extern D:\3.43\pic18-lt\cxx-framework\src\traditional\proc\p18f67j60.asm
                    EPMOH   0x000ed5       data     extern D:\3.43\pic18-lt\cxx-framework\src\traditional\proc\p18f67j60.asm
                    EPMOL   0x000ed4       data     extern D:\3.43\pic18-lt\cxx-framework\src\traditional\proc\p18f67j60.asm
                    ERDPT   0x000f7a       data     extern D:\3.43\pic18-lt\cxx-framework\src\traditional\proc\p18f67j60.asm
                   ERDPTH   0x000f7b       data     extern D:\3.43\pic18-lt\cxx-framework\src\traditional\proc\p18f67j60.asm
                   ERDPTL   0x000f7a       data     extern D:\3.43\pic18-lt\cxx-framework\src\traditional\proc\p18f67j60.asm
                  ERXFCON   0x000ed8       data     extern D:\3.43\pic18-lt\cxx-framework\src\traditional\proc\p18f67j60.asm
              ERXFCONbits   0x000ed8       data     extern D:\3.43\pic18-lt\cxx-framework\src\traditional\proc\p18f67j60.asm
                    ERXND   0x000eea       data     extern D:\3.43\pic18-lt\cxx-framework\src\traditional\proc\p18f67j60.asm
                   ERXNDH   0x000eeb       data     extern D:\3.43\pic18-lt\cxx-framework\src\traditional\proc\p18f67j60.asm
                   ERXNDL   0x000eea       data     extern D:\3.43\pic18-lt\cxx-framework\src\traditional\proc\p18f67j60.asm
                  ERXRDPT   0x000eec       data     extern D:\3.43\pic18-lt\cxx-framework\src\traditional\proc\p18f67j60.asm
                 ERXRDPTH   0x000eed       data     extern D:\3.43\pic18-lt\cxx-framework\src\traditional\proc\p18f67j60.asm
                 ERXRDPTL   0x000eec       data     extern D:\3.43\pic18-lt\cxx-framework\src\traditional\proc\p18f67j60.asm
                    ERXST   0x000ee8       data     extern D:\3.43\pic18-lt\cxx-framework\src\traditional\proc\p18f67j60.asm
                   ERXSTH   0x000ee9       data     extern D:\3.43\pic18-lt\cxx-framework\src\traditional\proc\p18f67j60.asm
                   ERXSTL   0x000ee8       data     extern D:\3.43\pic18-lt\cxx-framework\src\traditional\proc\p18f67j60.asm
                  ERXWRPT   0x000eee       data     extern D:\3.43\pic18-lt\cxx-framework\src\traditional\proc\p18f67j60.asm
                 ERXWRPTH   0x000eef       data     extern D:\3.43\pic18-lt\cxx-framework\src\traditional\proc\p18f67j60.asm
                 ERXWRPTL   0x000eee       data     extern D:\3.43\pic18-lt\cxx-framework\src\traditional\proc\p18f67j60.asm
                    ESTAT   0x000efd       data     extern D:\3.43\pic18-lt\cxx-framework\src\traditional\proc\p18f67j60.asm
                ESTATbits   0x000efd       data     extern D:\3.43\pic18-lt\cxx-framework\src\traditional\proc\p18f67j60.asm
                    ETXND   0x000ee6       data     extern D:\3.43\pic18-lt\cxx-framework\src\traditional\proc\p18f67j60.asm
                   ETXNDH   0x000ee7       data     extern D:\3.43\pic18-lt\cxx-framework\src\traditional\proc\p18f67j60.asm
                   ETXNDL   0x000ee6       data     extern D:\3.43\pic18-lt\cxx-framework\src\traditional\proc\p18f67j60.asm
                    ETXST   0x000ee4       data     extern D:\3.43\pic18-lt\cxx-framework\src\traditional\proc\p18f67j60.asm
                   ETXSTH   0x000ee5       data     extern D:\3.43\pic18-lt\cxx-framework\src\traditional\proc\p18f67j60.asm
                   ETXSTL   0x000ee4       data     extern D:\3.43\pic18-lt\cxx-framework\src\traditional\proc\p18f67j60.asm
                    EWRPT   0x000ee2       data     extern D:\3.43\pic18-lt\cxx-framework\src\traditional\proc\p18f67j60.asm
                   EWRPTH   0x000ee3       data     extern D:\3.43\pic18-lt\cxx-framework\src\traditional\proc\p18f67j60.asm
                   EWRPTL   0x000ee2       data     extern D:\3.43\pic18-lt\cxx-framework\src\traditional\proc\p18f67j60.asm
                        F   0x000e58       data     static D:\Final\PIC_Module\Miner\MySha256.c
                     FSR0   0x000fe9       data     extern D:\3.43\pic18-lt\cxx-framework\src\traditional\proc\p18f67j60.asm
                    FSR0H   0x000fea       data     extern D:\3.43\pic18-lt\cxx-framework\src\traditional\proc\p18f67j60.asm
                    FSR0L   0x000fe9       data     extern D:\3.43\pic18-lt\cxx-framework\src\traditional\proc\p18f67j60.asm
                     FSR1   0x000fe1       data     extern D:\3.43\pic18-lt\cxx-framework\src\traditional\proc\p18f67j60.asm
                    FSR1H   0x000fe2       data     extern D:\3.43\pic18-lt\cxx-framework\src\traditional\proc\p18f67j60.asm
                    FSR1L   0x000fe1       data     extern D:\3.43\pic18-lt\cxx-framework\src\traditional\proc\p18f67j60.asm
                     FSR2   0x000fd9       data     extern D:\3.43\pic18-lt\cxx-framework\src\traditional\proc\p18f67j60.asm
                    FSR2H   0x000fda       data     extern D:\3.43\pic18-lt\cxx-framework\src\traditional\proc\p18f67j60.asm
                    FSR2L   0x000fd9       data     extern D:\3.43\pic18-lt\cxx-framework\src\traditional\proc\p18f67j60.asm
                    Flags   0x000e7b       data     static D:\Final\PIC_Module\Microchip\TCPIP Stack\UDP.c
                    Flags   0x0001e4       data     static D:\Final\PIC_Module\Microchip\TCPIP Stack\DNS.c
                        G   0x000e5c       data     static D:\Final\PIC_Module\Miner\MySha256.c
                        H   0x000e60       data     static D:\Final\PIC_Module\Miner\MySha256.c
                      HCB   0x000834       data     static D:\Final\PIC_Module\Miner\Miner_WEB.c
                    INDF0   0x000fef       data     extern D:\3.43\pic18-lt\cxx-framework\src\traditional\proc\p18f67j60.asm
                    INDF1   0x000fe7       data     extern D:\3.43\pic18-lt\cxx-framework\src\traditional\proc\p18f67j60.asm
                    INDF2   0x000fdf       data     extern D:\3.43\pic18-lt\cxx-framework\src\traditional\proc\p18f67j60.asm
                   INTCON   0x000ff2       data     extern D:\3.43\pic18-lt\cxx-framework\src\traditional\proc\p18f67j60.asm
                  INTCON2   0x000ff1       data     extern D:\3.43\pic18-lt\cxx-framework\src\traditional\proc\p18f67j60.asm
              INTCON2bits   0x000ff1       data     extern D:\3.43\pic18-lt\cxx-framework\src\traditional\proc\p18f67j60.asm
                  INTCON3   0x000ff0       data     extern D:\3.43\pic18-lt\cxx-framework\src\traditional\proc\p18f67j60.asm
              INTCON3bits   0x000ff0       data     extern D:\3.43\pic18-lt\cxx-framework\src\traditional\proc\p18f67j60.asm
               INTCONbits   0x000ff2       data     extern D:\3.43\pic18-lt\cxx-framework\src\traditional\proc\p18f67j60.asm
              IPHeaderLen   0x0001f1       data     static D:\Final\PIC_Module\Microchip\TCPIP Stack\IP.c
                     IPR1   0x000f9f       data     extern D:\3.43\pic18-lt\cxx-framework\src\traditional\proc\p18f67j60.asm
                 IPR1bits   0x000f9f       data     extern D:\3.43\pic18-lt\cxx-framework\src\traditional\proc\p18f67j60.asm
                     IPR2   0x000fa2       data     extern D:\3.43\pic18-lt\cxx-framework\src\traditional\proc\p18f67j60.asm
                 IPR2bits   0x000fa2       data     extern D:\3.43\pic18-lt\cxx-framework\src\traditional\proc\p18f67j60.asm
                     IPR3   0x000fa5       data     extern D:\3.43\pic18-lt\cxx-framework\src\traditional\proc\p18f67j60.asm
                 IPR3bits   0x000fa5       data     extern D:\3.43\pic18-lt\cxx-framework\src\traditional\proc\p18f67j60.asm
                      IPs   0x00015c       data     static D:\Final\PIC_Module\Miner\GetPutWork.c
                     LATA   0x000f89       data     extern D:\3.43\pic18-lt\cxx-framework\src\traditional\proc\p18f67j60.asm
                 LATAbits   0x000f89       data     extern D:\3.43\pic18-lt\cxx-framework\src\traditional\proc\p18f67j60.asm
                     LATB   0x000f8a       data     extern D:\3.43\pic18-lt\cxx-framework\src\traditional\proc\p18f67j60.asm
                 LATBbits   0x000f8a       data     extern D:\3.43\pic18-lt\cxx-framework\src\traditional\proc\p18f67j60.asm
                     LATC   0x000f8b       data     extern D:\3.43\pic18-lt\cxx-framework\src\traditional\proc\p18f67j60.asm
                 LATCbits   0x000f8b       data     extern D:\3.43\pic18-lt\cxx-framework\src\traditional\proc\p18f67j60.asm
                     LATD   0x000f8c       data     extern D:\3.43\pic18-lt\cxx-framework\src\traditional\proc\p18f67j60.asm
                 LATDbits   0x000f8c       data     extern D:\3.43\pic18-lt\cxx-framework\src\traditional\proc\p18f67j60.asm
                     LATE   0x000f8d       data     extern D:\3.43\pic18-lt\cxx-framework\src\traditional\proc\p18f67j60.asm
                 LATEbits   0x000f8d       data     extern D:\3.43\pic18-lt\cxx-framework\src\traditional\proc\p18f67j60.asm
                     LATF   0x000f8e       data     extern D:\3.43\pic18-lt\cxx-framework\src\traditional\proc\p18f67j60.asm
                 LATFbits   0x000f8e       data     extern D:\3.43\pic18-lt\cxx-framework\src\traditional\proc\p18f67j60.asm
                     LATG   0x000f8f       data     extern D:\3.43\pic18-lt\cxx-framework\src\traditional\proc\p18f67j60.asm
                 LATGbits   0x000f8f       data     extern D:\3.43\pic18-lt\cxx-framework\src\traditional\proc\p18f67j60.asm
            LastPutSocket   0x0001e9       data     static D:\Final\PIC_Module\Microchip\TCPIP Stack\UDP.c
                   MAADR1   0x000e84       data     extern D:\3.43\pic18-lt\cxx-framework\src\traditional\proc\p18f67j60.asm
                   MAADR2   0x000e85       data     extern D:\3.43\pic18-lt\cxx-framework\src\traditional\proc\p18f67j60.asm
                   MAADR3   0x000e82       data     extern D:\3.43\pic18-lt\cxx-framework\src\traditional\proc\p18f67j60.asm
                   MAADR4   0x000e83       data     extern D:\3.43\pic18-lt\cxx-framework\src\traditional\proc\p18f67j60.asm
                   MAADR5   0x000e80       data     extern D:\3.43\pic18-lt\cxx-framework\src\traditional\proc\p18f67j60.asm
                   MAADR6   0x000e81       data     extern D:\3.43\pic18-lt\cxx-framework\src\traditional\proc\p18f67j60.asm
                  MABBIPG   0x000ea4       data     extern D:\3.43\pic18-lt\cxx-framework\src\traditional\proc\p18f67j60.asm
              MABBIPGbits   0x000ea4       data     extern D:\3.43\pic18-lt\cxx-framework\src\traditional\proc\p18f67j60.asm
                   MACON1   0x000ea0       data     extern D:\3.43\pic18-lt\cxx-framework\src\traditional\proc\p18f67j60.asm
               MACON1bits   0x000ea0       data     extern D:\3.43\pic18-lt\cxx-framework\src\traditional\proc\p18f67j60.asm
                   MACON3   0x000ea2       data     extern D:\3.43\pic18-lt\cxx-framework\src\traditional\proc\p18f67j60.asm
               MACON3bits   0x000ea2       data     extern D:\3.43\pic18-lt\cxx-framework\src\traditional\proc\p18f67j60.asm
                   MACON4   0x000ea3       data     extern D:\3.43\pic18-lt\cxx-framework\src\traditional\proc\p18f67j60.asm
               MACON4bits   0x000ea3       data     extern D:\3.43\pic18-lt\cxx-framework\src\traditional\proc\p18f67j60.asm
                    MAIPG   0x000ea6       data     extern D:\3.43\pic18-lt\cxx-framework\src\traditional\proc\p18f67j60.asm
                   MAIPGH   0x000ea7       data     extern D:\3.43\pic18-lt\cxx-framework\src\traditional\proc\p18f67j60.asm
                   MAIPGL   0x000ea6       data     extern D:\3.43\pic18-lt\cxx-framework\src\traditional\proc\p18f67j60.asm
                   MAMXFL   0x000eaa       data     extern D:\3.43\pic18-lt\cxx-framework\src\traditional\proc\p18f67j60.asm
                  MAMXFLH   0x000eab       data     extern D:\3.43\pic18-lt\cxx-framework\src\traditional\proc\p18f67j60.asm
                  MAMXFLL   0x000eaa       data     extern D:\3.43\pic18-lt\cxx-framework\src\traditional\proc\p18f67j60.asm
                    MICMD   0x000eb2       data     extern D:\3.43\pic18-lt\cxx-framework\src\traditional\proc\p18f67j60.asm
                MICMDbits   0x000eb2       data     extern D:\3.43\pic18-lt\cxx-framework\src\traditional\proc\p18f67j60.asm
                     MIRD   0x000eb8       data     extern D:\3.43\pic18-lt\cxx-framework\src\traditional\proc\p18f67j60.asm
                    MIRDH   0x000eb9       data     extern D:\3.43\pic18-lt\cxx-framework\src\traditional\proc\p18f67j60.asm
                    MIRDL   0x000eb8       data     extern D:\3.43\pic18-lt\cxx-framework\src\traditional\proc\p18f67j60.asm
                 MIREGADR   0x000eb4       data     extern D:\3.43\pic18-lt\cxx-framework\src\traditional\proc\p18f67j60.asm
                   MISTAT   0x000e8a       data     extern D:\3.43\pic18-lt\cxx-framework\src\traditional\proc\p18f67j60.asm
               MISTATbits   0x000e8a       data     extern D:\3.43\pic18-lt\cxx-framework\src\traditional\proc\p18f67j60.asm
                     MIWR   0x000eb6       data     extern D:\3.43\pic18-lt\cxx-framework\src\traditional\proc\p18f67j60.asm
                    MIWRH   0x000eb7       data     extern D:\3.43\pic18-lt\cxx-framework\src\traditional\proc\p18f67j60.asm
                    MIWRL   0x000eb6       data     extern D:\3.43\pic18-lt\cxx-framework\src\traditional\proc\p18f67j60.asm
                 MySocket   0x0001e3       data     static D:\Final\PIC_Module\Microchip\TCPIP Stack\DNS.c
                    MyTCB   0x000f02       data     static D:\Final\PIC_Module\Microchip\TCPIP Stack\TCP.c
                MyTCBStub   0x000f27       data     static D:\Final\PIC_Module\Microchip\TCPIP Stack\TCP.c
       NextPacketLocation   0x000f59       data     static D:\Final\PIC_Module\Microchip\TCPIP Stack\ETH97J60.c
                 NextPort   0x000f00       data     static D:\Final\PIC_Module\Microchip\TCPIP Stack\TCP.c
                 NextPort   0x000e7c       data     static D:\Final\PIC_Module\Microchip\TCPIP Stack\UDP.c
                   OSCCON   0x000fd3       data     extern D:\3.43\pic18-lt\cxx-framework\src\traditional\proc\p18f67j60.asm
               OSCCONbits   0x000fd3       data     extern D:\3.43\pic18-lt\cxx-framework\src\traditional\proc\p18f67j60.asm
                  OSCTUNE   0x000f9b       data     extern D:\3.43\pic18-lt\cxx-framework\src\traditional\proc\p18f67j60.asm
              OSCTUNEbits   0x000f9b       data     extern D:\3.43\pic18-lt\cxx-framework\src\traditional\proc\p18f67j60.asm
                       PC   0x000ff9       data     extern D:\3.43\pic18-lt\cxx-framework\src\traditional\proc\p18f67j60.asm
                      PCL   0x000ff9       data     extern D:\3.43\pic18-lt\cxx-framework\src\traditional\proc\p18f67j60.asm
                   PCLATH   0x000ffa       data     extern D:\3.43\pic18-lt\cxx-framework\src\traditional\proc\p18f67j60.asm
                   PCLATU   0x000ffb       data     extern D:\3.43\pic18-lt\cxx-framework\src\traditional\proc\p18f67j60.asm
                     PIE1   0x000f9d       data     extern D:\3.43\pic18-lt\cxx-framework\src\traditional\proc\p18f67j60.asm
                 PIE1bits   0x000f9d       data     extern D:\3.43\pic18-lt\cxx-framework\src\traditional\proc\p18f67j60.asm
                     PIE2   0x000fa0       data     extern D:\3.43\pic18-lt\cxx-framework\src\traditional\proc\p18f67j60.asm
                 PIE2bits   0x000fa0       data     extern D:\3.43\pic18-lt\cxx-framework\src\traditional\proc\p18f67j60.asm
                     PIE3   0x000fa3       data     extern D:\3.43\pic18-lt\cxx-framework\src\traditional\proc\p18f67j60.asm
                 PIE3bits   0x000fa3       data     extern D:\3.43\pic18-lt\cxx-framework\src\traditional\proc\p18f67j60.asm
                     PIR1   0x000f9e       data     extern D:\3.43\pic18-lt\cxx-framework\src\traditional\proc\p18f67j60.asm
                 PIR1bits   0x000f9e       data     extern D:\3.43\pic18-lt\cxx-framework\src\traditional\proc\p18f67j60.asm
                     PIR2   0x000fa1       data     extern D:\3.43\pic18-lt\cxx-framework\src\traditional\proc\p18f67j60.asm
                 PIR2bits   0x000fa1       data     extern D:\3.43\pic18-lt\cxx-framework\src\traditional\proc\p18f67j60.asm
                     PIR3   0x000fa4       data     extern D:\3.43\pic18-lt\cxx-framework\src\traditional\proc\p18f67j60.asm
                 PIR3bits   0x000fa4       data     extern D:\3.43\pic18-lt\cxx-framework\src\traditional\proc\p18f67j60.asm
                   PLUSW0   0x000feb       data     extern D:\3.43\pic18-lt\cxx-framework\src\traditional\proc\p18f67j60.asm
                   PLUSW1   0x000fe3       data     extern D:\3.43\pic18-lt\cxx-framework\src\traditional\proc\p18f67j60.asm
                   PLUSW2   0x000fdb       data     extern D:\3.43\pic18-lt\cxx-framework\src\traditional\proc\p18f67j60.asm
                    PORTA   0x000f80       data     extern D:\3.43\pic18-lt\cxx-framework\src\traditional\proc\p18f67j60.asm
                PORTAbits   0x000f80       data     extern D:\3.43\pic18-lt\cxx-framework\src\traditional\proc\p18f67j60.asm
                    PORTB   0x000f81       data     extern D:\3.43\pic18-lt\cxx-framework\src\traditional\proc\p18f67j60.asm
                PORTBbits   0x000f81       data     extern D:\3.43\pic18-lt\cxx-framework\src\traditional\proc\p18f67j60.asm
                    PORTC   0x000f82       data     extern D:\3.43\pic18-lt\cxx-framework\src\traditional\proc\p18f67j60.asm
                PORTCbits   0x000f82       data     extern D:\3.43\pic18-lt\cxx-framework\src\traditional\proc\p18f67j60.asm
                    PORTD   0x000f83       data     extern D:\3.43\pic18-lt\cxx-framework\src\traditional\proc\p18f67j60.asm
                PORTDbits   0x000f83       data     extern D:\3.43\pic18-lt\cxx-framework\src\traditional\proc\p18f67j60.asm
                    PORTE   0x000f84       data     extern D:\3.43\pic18-lt\cxx-framework\src\traditional\proc\p18f67j60.asm
                PORTEbits   0x000f84       data     extern D:\3.43\pic18-lt\cxx-framework\src\traditional\proc\p18f67j60.asm
                    PORTF   0x000f85       data     extern D:\3.43\pic18-lt\cxx-framework\src\traditional\proc\p18f67j60.asm
                PORTFbits   0x000f85       data     extern D:\3.43\pic18-lt\cxx-framework\src\traditional\proc\p18f67j60.asm
                    PORTG   0x000f86       data     extern D:\3.43\pic18-lt\cxx-framework\src\traditional\proc\p18f67j60.asm
                PORTGbits   0x000f86       data     extern D:\3.43\pic18-lt\cxx-framework\src\traditional\proc\p18f67j60.asm
                 POSTDEC0   0x000fed       data     extern D:\3.43\pic18-lt\cxx-framework\src\traditional\proc\p18f67j60.asm
                 POSTDEC1   0x000fe5       data     extern D:\3.43\pic18-lt\cxx-framework\src\traditional\proc\p18f67j60.asm
                 POSTDEC2   0x000fdd       data     extern D:\3.43\pic18-lt\cxx-framework\src\traditional\proc\p18f67j60.asm
                 POSTINC0   0x000fee       data     extern D:\3.43\pic18-lt\cxx-framework\src\traditional\proc\p18f67j60.asm
                 POSTINC1   0x000fe6       data     extern D:\3.43\pic18-lt\cxx-framework\src\traditional\proc\p18f67j60.asm
                 POSTINC2   0x000fde       data     extern D:\3.43\pic18-lt\cxx-framework\src\traditional\proc\p18f67j60.asm
                      PR2   0x000fcb       data     extern D:\3.43\pic18-lt\cxx-framework\src\traditional\proc\p18f67j60.asm
                      PR4   0x000f77       data     extern D:\3.43\pic18-lt\cxx-framework\src\traditional\proc\p18f67j60.asm
                  PREINC0   0x000fec       data     extern D:\3.43\pic18-lt\cxx-framework\src\traditional\proc\p18f67j60.asm
                  PREINC1   0x000fe4       data     extern D:\3.43\pic18-lt\cxx-framework\src\traditional\proc\p18f67j60.asm
                  PREINC2   0x000fdc       data     extern D:\3.43\pic18-lt\cxx-framework\src\traditional\proc\p18f67j60.asm
                     PROD   0x000ff3       data     extern D:\3.43\pic18-lt\cxx-framework\src\traditional\proc\p18f67j60.asm
                    PRODH   0x000ff4       data     extern D:\3.43\pic18-lt\cxx-framework\src\traditional\proc\p18f67j60.asm
                    PRODL   0x000ff3       data     extern D:\3.43\pic18-lt\cxx-framework\src\traditional\proc\p18f67j60.asm
                     RCON   0x000fd0       data     extern D:\3.43\pic18-lt\cxx-framework\src\traditional\proc\p18f67j60.asm
                 RCONbits   0x000fd0       data     extern D:\3.43\pic18-lt\cxx-framework\src\traditional\proc\p18f67j60.asm
                    RCREG   0x000fae       data     extern D:\3.43\pic18-lt\cxx-framework\src\traditional\proc\p18f67j60.asm
                   RCREG1   0x000fae       data     extern D:\3.43\pic18-lt\cxx-framework\src\traditional\proc\p18f67j60.asm
                    RCSTA   0x000fab       data     extern D:\3.43\pic18-lt\cxx-framework\src\traditional\proc\p18f67j60.asm
                   RCSTA1   0x000fab       data     extern D:\3.43\pic18-lt\cxx-framework\src\traditional\proc\p18f67j60.asm
               RCSTA1bits   0x000fab       data     extern D:\3.43\pic18-lt\cxx-framework\src\traditional\proc\p18f67j60.asm
                RCSTAbits   0x000fab       data     extern D:\3.43\pic18-lt\cxx-framework\src\traditional\proc\p18f67j60.asm
               RecordType   0x000187       data     static D:\Final\PIC_Module\Microchip\TCPIP Stack\DNS.c
               RemoteInfo   0x000f43       data     static D:\Final\PIC_Module\Microchip\TCPIP Stack\TCP.c
             ResolvedInfo   0x000188       data     static D:\Final\PIC_Module\Microchip\TCPIP Stack\DNS.c
                     SIGN   0x000034       data     extern D:\3.43\pic18-lt\cxx-framework\src\traditional\math\cmath18.asm
                    SPBRG   0x000faf       data     extern D:\3.43\pic18-lt\cxx-framework\src\traditional\proc\p18f67j60.asm
                   SPBRG1   0x000faf       data     extern D:\3.43\pic18-lt\cxx-framework\src\traditional\proc\p18f67j60.asm
                   SPBRGH   0x000f7f       data     extern D:\3.43\pic18-lt\cxx-framework\src\traditional\proc\p18f67j60.asm
                  SPBRGH1   0x000f7f       data     extern D:\3.43\pic18-lt\cxx-framework\src\traditional\proc\p18f67j60.asm
                  SSP1ADD   0x000fc8       data     extern D:\3.43\pic18-lt\cxx-framework\src\traditional\proc\p18f67j60.asm
                  SSP1BUF   0x000fc9       data     extern D:\3.43\pic18-lt\cxx-framework\src\traditional\proc\p18f67j60.asm
                 SSP1CON1   0x000fc6       data     extern D:\3.43\pic18-lt\cxx-framework\src\traditional\proc\p18f67j60.asm
             SSP1CON1bits   0x000fc6       data     extern D:\3.43\pic18-lt\cxx-framework\src\traditional\proc\p18f67j60.asm
                 SSP1CON2   0x000fc5       data     extern D:\3.43\pic18-lt\cxx-framework\src\traditional\proc\p18f67j60.asm
             SSP1CON2bits   0x000fc5       data     extern D:\3.43\pic18-lt\cxx-framework\src\traditional\proc\p18f67j60.asm
                 SSP1STAT   0x000fc7       data     extern D:\3.43\pic18-lt\cxx-framework\src\traditional\proc\p18f67j60.asm
             SSP1STATbits   0x000fc7       data     extern D:\3.43\pic18-lt\cxx-framework\src\traditional\proc\p18f67j60.asm
                   SSPADD   0x000fc8       data     extern D:\3.43\pic18-lt\cxx-framework\src\traditional\proc\p18f67j60.asm
                   SSPBUF   0x000fc9       data     extern D:\3.43\pic18-lt\cxx-framework\src\traditional\proc\p18f67j60.asm
                  SSPCON1   0x000fc6       data     extern D:\3.43\pic18-lt\cxx-framework\src\traditional\proc\p18f67j60.asm
              SSPCON1bits   0x000fc6       data     extern D:\3.43\pic18-lt\cxx-framework\src\traditional\proc\p18f67j60.asm
                  SSPCON2   0x000fc5       data     extern D:\3.43\pic18-lt\cxx-framework\src\traditional\proc\p18f67j60.asm
              SSPCON2bits   0x000fc5       data     extern D:\3.43\pic18-lt\cxx-framework\src\traditional\proc\p18f67j60.asm
                  SSPSTAT   0x000fc7       data     extern D:\3.43\pic18-lt\cxx-framework\src\traditional\proc\p18f67j60.asm
              SSPSTATbits   0x000fc7       data     extern D:\3.43\pic18-lt\cxx-framework\src\traditional\proc\p18f67j60.asm
                   STATUS   0x000fd8       data     extern D:\3.43\pic18-lt\cxx-framework\src\traditional\proc\p18f67j60.asm
               STATUSbits   0x000fd8       data     extern D:\3.43\pic18-lt\cxx-framework\src\traditional\proc\p18f67j60.asm
                   STKPTR   0x000ffc       data     extern D:\3.43\pic18-lt\cxx-framework\src\traditional\proc\p18f67j60.asm
               STKPTRbits   0x000ffc       data     extern D:\3.43\pic18-lt\cxx-framework\src\traditional\proc\p18f67j60.asm
                 SYNQueue   0x000e00       data     static D:\Final\PIC_Module\Microchip\TCPIP Stack\TCP.c
                     SYSF   0x0001b6       data     extern D:\Final\PIC_Module\Miner\Miner_Main.c
                     Seed   0x0001e7       data     static D:\3.43\pic18-lt\cxx-framework\src\traditional\stdclib\rand.asm
        SentTransactionID   0x000196       data     static D:\Final\PIC_Module\Microchip\TCPIP Stack\DNS.c
         SocketWithRxData   0x0001ea       data     static D:\Final\PIC_Module\Microchip\TCPIP Stack\UDP.c
                StartTime   0x000192       data     static D:\Final\PIC_Module\Microchip\TCPIP Stack\DNS.c
                    State   0x00016b       data     static D:\Final\PIC_Module\Miner\GetPutWork.c
                    Statw   0x00016f       data     static D:\Final\PIC_Module\Miner\GetPutWork.c
                    T0CON   0x000fd5       data     extern D:\3.43\pic18-lt\cxx-framework\src\traditional\proc\p18f67j60.asm
                T0CONbits   0x000fd5       data     extern D:\3.43\pic18-lt\cxx-framework\src\traditional\proc\p18f67j60.asm
                       T1   0x000e3c       data     static D:\Final\PIC_Module\Miner\MySha256.c
                    T1CON   0x000fcd       data     extern D:\3.43\pic18-lt\cxx-framework\src\traditional\proc\p18f67j60.asm
                T1CONbits   0x000fcd       data     extern D:\3.43\pic18-lt\cxx-framework\src\traditional\proc\p18f67j60.asm
                       T2   0x000e40       data     static D:\Final\PIC_Module\Miner\MySha256.c
                    T2CON   0x000fca       data     extern D:\3.43\pic18-lt\cxx-framework\src\traditional\proc\p18f67j60.asm
                T2CONbits   0x000fca       data     extern D:\3.43\pic18-lt\cxx-framework\src\traditional\proc\p18f67j60.asm
                    T3CON   0x000fb1       data     extern D:\3.43\pic18-lt\cxx-framework\src\traditional\proc\p18f67j60.asm
                T3CONbits   0x000fb1       data     extern D:\3.43\pic18-lt\cxx-framework\src\traditional\proc\p18f67j60.asm
                    T4CON   0x000f76       data     extern D:\3.43\pic18-lt\cxx-framework\src\traditional\proc\p18f67j60.asm
                T4CONbits   0x000f76       data     extern D:\3.43\pic18-lt\cxx-framework\src\traditional\proc\p18f67j60.asm
                   TABLAT   0x000ff5       data     extern D:\3.43\pic18-lt\cxx-framework\src\traditional\proc\p18f67j60.asm
                   TBLPTR   0x000ff6       data     extern D:\3.43\pic18-lt\cxx-framework\src\traditional\proc\p18f67j60.asm
                  TBLPTRH   0x000ff7       data     extern D:\3.43\pic18-lt\cxx-framework\src\traditional\proc\p18f67j60.asm
                  TBLPTRL   0x000ff6       data     extern D:\3.43\pic18-lt\cxx-framework\src\traditional\proc\p18f67j60.asm
                  TBLPTRU   0x000ff8       data     extern D:\3.43\pic18-lt\cxx-framework\src\traditional\proc\p18f67j60.asm
                 TCBStubs   0x000060       data     static D:\Final\PIC_Module\Microchip\TCPIP Stack\TCP.c
                    TMR0H   0x000fd7       data     extern D:\3.43\pic18-lt\cxx-framework\src\traditional\proc\p18f67j60.asm
                    TMR0L   0x000fd6       data     extern D:\3.43\pic18-lt\cxx-framework\src\traditional\proc\p18f67j60.asm
                    TMR1H   0x000fcf       data     extern D:\3.43\pic18-lt\cxx-framework\src\traditional\proc\p18f67j60.asm
                    TMR1L   0x000fce       data     extern D:\3.43\pic18-lt\cxx-framework\src\traditional\proc\p18f67j60.asm
                     TMR2   0x000fcc       data     extern D:\3.43\pic18-lt\cxx-framework\src\traditional\proc\p18f67j60.asm
                    TMR3H   0x000fb3       data     extern D:\3.43\pic18-lt\cxx-framework\src\traditional\proc\p18f67j60.asm
                    TMR3L   0x000fb2       data     extern D:\3.43\pic18-lt\cxx-framework\src\traditional\proc\p18f67j60.asm
                     TMR4   0x000f78       data     extern D:\3.43\pic18-lt\cxx-framework\src\traditional\proc\p18f67j60.asm
                      TOS   0x000ffd       data     extern D:\3.43\pic18-lt\cxx-framework\src\traditional\proc\p18f67j60.asm
                     TOSH   0x000ffe       data     extern D:\3.43\pic18-lt\cxx-framework\src\traditional\proc\p18f67j60.asm
                     TOSL   0x000ffd       data     extern D:\3.43\pic18-lt\cxx-framework\src\traditional\proc\p18f67j60.asm
                     TOSU   0x000fff       data     extern D:\3.43\pic18-lt\cxx-framework\src\traditional\proc\p18f67j60.asm
                    TRISA   0x000f92       data     extern D:\3.43\pic18-lt\cxx-framework\src\traditional\proc\p18f67j60.asm
                TRISAbits   0x000f92       data     extern D:\3.43\pic18-lt\cxx-framework\src\traditional\proc\p18f67j60.asm
                    TRISB   0x000f93       data     extern D:\3.43\pic18-lt\cxx-framework\src\traditional\proc\p18f67j60.asm
                TRISBbits   0x000f93       data     extern D:\3.43\pic18-lt\cxx-framework\src\traditional\proc\p18f67j60.asm
                    TRISC   0x000f94       data     extern D:\3.43\pic18-lt\cxx-framework\src\traditional\proc\p18f67j60.asm
                TRISCbits   0x000f94       data     extern D:\3.43\pic18-lt\cxx-framework\src\traditional\proc\p18f67j60.asm
                    TRISD   0x000f95       data     extern D:\3.43\pic18-lt\cxx-framework\src\traditional\proc\p18f67j60.asm
                TRISDbits   0x000f95       data     extern D:\3.43\pic18-lt\cxx-framework\src\traditional\proc\p18f67j60.asm
                    TRISE   0x000f96       data     extern D:\3.43\pic18-lt\cxx-framework\src\traditional\proc\p18f67j60.asm
                TRISEbits   0x000f96       data     extern D:\3.43\pic18-lt\cxx-framework\src\traditional\proc\p18f67j60.asm
                    TRISF   0x000f97       data     extern D:\3.43\pic18-lt\cxx-framework\src\traditional\proc\p18f67j60.asm
                TRISFbits   0x000f97       data     extern D:\3.43\pic18-lt\cxx-framework\src\traditional\proc\p18f67j60.asm
                    TRISG   0x000f98       data     extern D:\3.43\pic18-lt\cxx-framework\src\traditional\proc\p18f67j60.asm
                TRISGbits   0x000f98       data     extern D:\3.43\pic18-lt\cxx-framework\src\traditional\proc\p18f67j60.asm
                    TXREG   0x000fad       data     extern D:\3.43\pic18-lt\cxx-framework\src\traditional\proc\p18f67j60.asm
                   TXREG1   0x000fad       data     extern D:\3.43\pic18-lt\cxx-framework\src\traditional\proc\p18f67j60.asm
                    TXSTA   0x000fac       data     extern D:\3.43\pic18-lt\cxx-framework\src\traditional\proc\p18f67j60.asm
                   TXSTA1   0x000fac       data     extern D:\3.43\pic18-lt\cxx-framework\src\traditional\proc\p18f67j60.asm
               TXSTA1bits   0x000fac       data     extern D:\3.43\pic18-lt\cxx-framework\src\traditional\proc\p18f67j60.asm
                TXSTAbits   0x000fac       data     extern D:\3.43\pic18-lt\cxx-framework\src\traditional\proc\p18f67j60.asm
                   Target   0x0001a4       data     static D:\Final\PIC_Module\Microchip\TCPIP Stack\ARP.c
                    Timer   0x000814       data     static D:\Final\PIC_Module\Miner\GetPutWork.c
                    Timer   0x000824       data     static D:\Final\PIC_Module\Miner\GetPutWork.c
               UDPRxCount   0x000e75       data     extern D:\Final\PIC_Module\Microchip\TCPIP Stack\UDP.c
            UDPSocketInfo   0x000e64       data     extern D:\Final\PIC_Module\Microchip\TCPIP Stack\UDP.c
               UDPTxCount   0x000e73       data     extern D:\Final\PIC_Module\Microchip\TCPIP Stack\UDP.c
                   WDTCON   0x000fd1       data     extern D:\3.43\pic18-lt\cxx-framework\src\traditional\proc\p18f67j60.asm
               WDTCONbits   0x000fd1       data     extern D:\3.43\pic18-lt\cxx-framework\src\traditional\proc\p18f67j60.asm
                     WREG   0x000fe8       data     extern D:\3.43\pic18-lt\cxx-framework\src\traditional\proc\p18f67j60.asm
             WasDiscarded   0x000f5d       data     static D:\Final\PIC_Module\Microchip\TCPIP Stack\ETH97J60.c
                    WdTim   0x00017d       data     static D:\Final\PIC_Module\Miner\GetPutWork.c
              _Identifier   0x0001ef       data     static D:\Final\PIC_Module\Microchip\TCPIP Stack\IP.c
                 __AARGB0   0x00003d       data     extern D:\3.43\pic18-lt\cxx-framework\src\traditional\math\aarg.asm
                 __AARGB1   0x00003c       data     extern D:\3.43\pic18-lt\cxx-framework\src\traditional\math\aarg.asm
                 __AARGB2   0x00003b       data     extern D:\3.43\pic18-lt\cxx-framework\src\traditional\math\aarg.asm
                 __AARGB3   0x00003a       data     extern D:\3.43\pic18-lt\cxx-framework\src\traditional\math\aarg.asm
                 __AARGB4   0x000039       data     extern D:\3.43\pic18-lt\cxx-framework\src\traditional\math\aarg.asm
                 __AARGB5   0x000038       data     extern D:\3.43\pic18-lt\cxx-framework\src\traditional\math\aarg.asm
                 __AARGB6   0x000037       data     extern D:\3.43\pic18-lt\cxx-framework\src\traditional\math\aarg.asm
                 __AARGB7   0x000036       data     extern D:\3.43\pic18-lt\cxx-framework\src\traditional\math\aarg.asm
                   __AEXP   0x00003e       data     extern D:\3.43\pic18-lt\cxx-framework\src\traditional\math\aarg.asm
                 __BARGB0   0x000042       data     extern D:\3.43\pic18-lt\cxx-framework\src\traditional\math\barg.asm
                 __BARGB1   0x000041       data     extern D:\3.43\pic18-lt\cxx-framework\src\traditional\math\barg.asm
                 __BARGB2   0x000040       data     extern D:\3.43\pic18-lt\cxx-framework\src\traditional\math\barg.asm
                 __BARGB3   0x00003f       data     extern D:\3.43\pic18-lt\cxx-framework\src\traditional\math\barg.asm
                   __BEXP   0x000043       data     extern D:\3.43\pic18-lt\cxx-framework\src\traditional\math\barg.asm
                __FPFLAGS   0x000035       data     extern D:\3.43\pic18-lt\cxx-framework\src\traditional\math\cmath18.asm
            __FPFLAGSbits   0x000035       data     extern D:\3.43\pic18-lt\cxx-framework\src\traditional\math\cmath18.asm
                  __REMB0   0x000039       data     extern D:\3.43\pic18-lt\cxx-framework\src\traditional\math\aarg.asm
                  __REMB1   0x000038       data     extern D:\3.43\pic18-lt\cxx-framework\src\traditional\math\aarg.asm
                  __REMB2   0x000037       data     extern D:\3.43\pic18-lt\cxx-framework\src\traditional\math\aarg.asm
                  __REMB3   0x000036       data     extern D:\3.43\pic18-lt\cxx-framework\src\traditional\math\aarg.asm
                   __TEMP   0x000047       data     extern D:\3.43\pic18-lt\cxx-framework\src\traditional\math\temparg.asm
                 __TEMPB0   0x000047       data     extern D:\3.43\pic18-lt\cxx-framework\src\traditional\math\temparg.asm
                 __TEMPB1   0x000046       data     extern D:\3.43\pic18-lt\cxx-framework\src\traditional\math\temparg.asm
                 __TEMPB2   0x000045       data     extern D:\3.43\pic18-lt\cxx-framework\src\traditional\math\temparg.asm
                 __TEMPB3   0x000044       data     extern D:\3.43\pic18-lt\cxx-framework\src\traditional\math\temparg.asm
                  __tmp_0   0x000000       data     static D:\Final\PIC_Module\Microchip\TCPIP Stack\ETH97J60.c
                  __tmp_0   0x000000       data     static D:\Final\PIC_Module\Microchip\TCPIP Stack\ARP.c
                  __tmp_0   0x000000       data     static D:\Final\PIC_Module\Miner\GetPutWork.c
                  __tmp_0   0x000000       data     static D:\Final\PIC_Module\Miner\Miner_Main.c
                  __tmp_0   0x000000       data     static D:\Final\PIC_Module\Miner\Miner_WEB.c
                  __tmp_0   0x000000       data     static D:\Final\PIC_Module\Miner\MySha256.c
                  __tmp_0   0x000000       data     static D:\Final\PIC_Module\Microchip\TCPIP Stack\Helpers.c
                  __tmp_0   0x000000       data     static D:\Final\PIC_Module\Microchip\TCPIP Stack\UDP.c
                  __tmp_0   0x000000       data     static D:\Final\PIC_Module\Microchip\TCPIP Stack\TCP.c
                  __tmp_0   0x000000       data     static D:\Final\PIC_Module\Microchip\TCPIP Stack\DNS.c
                  __tmp_0   0x000000       data     static D:\Final\PIC_Module\Microchip\TCPIP Stack\StackTsk.c
                  __tmp_0   0x000000       data     static D:\Final\PIC_Module\Microchip\TCPIP Stack\IP.c
                  __tmp_0   0x000000       data     static D:\Final\PIC_Module\Microchip\TCPIP Stack\ICMP.c
                     acci   0x000bba       data     extern D:\Final\PIC_Module\Miner\Miner_WEB.c
          activeUDPSocket   0x000e72       data     extern D:\Final\PIC_Module\Microchip\TCPIP Stack\UDP.c
                    bLEDs   0x000162       data     extern D:\Final\PIC_Module\Miner\GetPutWork.c
                       bt   0x0001b7       data     static D:\Final\PIC_Module\Miner\Miner_Main.c
                        c   0x0001be       data     static D:\Final\PIC_Module\Miner\Miner_Main.c
                curr_byte   0x000f52       data     static D:\3.43\pic18-lt\cxx-framework\src\traditional\startup\c018i.c
               curr_entry   0x000f54       data     static D:\3.43\pic18-lt\cxx-framework\src\traditional\startup\c018i.c
                      dat   0x000812       data     static D:\Final\PIC_Module\Miner\GetPutWork.c
                 data_ptr   0x000f56       data     static D:\3.43\pic18-lt\cxx-framework\src\traditional\startup\c018i.c
          dwInternalTicks   0x0001ca       data     static D:\Final\PIC_Module\Microchip\TCPIP Stack\Tick.c
                   dwRunt   0x0001ce       data     extern D:\Final\PIC_Module\Microchip\TCPIP Stack\Tick.c
                      eti   0x000c48       data     static D:\Final\PIC_Module\Miner\Miner_WEB.c
                    exist   0x0001ae       data     static D:\Final\PIC_Module\Miner\Miner_Main.c
                     gotn   0x000167       data     extern D:\Final\PIC_Module\Miner\GetPutWork.c
                    gsock   0x000173       data     static D:\Final\PIC_Module\Miner\GetPutWork.c
                     gwix   0x000160       data     static D:\Final\PIC_Module\Miner\GetPutWork.c
              hCurrentTCP   0x0001eb       data     static D:\Final\PIC_Module\Microchip\TCPIP Stack\TCP.c
                 hLastTCB   0x0001ec       data     static D:\Final\PIC_Module\Microchip\TCPIP Stack\TCP.c
                 httpData   0x0001ed       data     extern D:\Final\PIC_Module\Miner\Miner_WEB.c
                        i   0x0001bf       data     static D:\Final\PIC_Module\Miner\Miner_Main.c
                       id   0x00017c       data     static D:\Final\PIC_Module\Miner\GetPutWork.c
                      ipo   0x0001df       data     static D:\Final\PIC_Module\Microchip\TCPIP Stack\ARP.c
                     mask   0x000181       data     static D:\Final\PIC_Module\Miner\GetPutWork.c
                      mid   0x000810       data     static D:\Final\PIC_Module\Miner\GetPutWork.c
                    nonce   0x0001b2       data     extern D:\Final\PIC_Module\Miner\Miner_Main.c
                        p   0x000c3c       data     static D:\Final\PIC_Module\Miner\Miner_WEB.c
                     page   0x0001dc       data     static D:\Final\PIC_Module\Miner\Miner_Main.c
                       pg   0x0001bd       data     static D:\Final\PIC_Module\Miner\Miner_Main.c
                       ph   0x000c3a       data     static D:\Final\PIC_Module\Miner\Miner_WEB.c
                     prom   0x000f4f       data     static D:\3.43\pic18-lt\cxx-framework\src\traditional\startup\c018i.c
                    psock   0x000177       data     static D:\Final\PIC_Module\Miner\GetPutWork.c
                     pwix   0x000161       data     static D:\Final\PIC_Module\Miner\GetPutWork.c
                       qw   0x000c40       data     static D:\Final\PIC_Module\Miner\Miner_WEB.c
               remoteNode   0x0001c0       data     extern D:\Final\PIC_Module\Microchip\TCPIP Stack\StackTsk.c
                     ruti   0x000c44       data     static D:\Final\PIC_Module\Miner\Miner_WEB.c
                    sdami   0x000200       data     extern D:\Final\PIC_Module\Miner\GetPutWork.c
                    smARP   0x0001de       data     static D:\Final\PIC_Module\Microchip\TCPIP Stack\ARP.c
                    smDNS   0x0001e5       data     static D:\Final\PIC_Module\Microchip\TCPIP Stack\DNS.c
                    spwrk   0x000560       data     extern D:\Final\PIC_Module\Miner\GetPutWork.c
                     subm   0x000163       data     extern D:\Final\PIC_Module\Miner\GetPutWork.c
                        t   0x000c3e       data     static D:\Final\PIC_Module\Miner\Miner_WEB.c
                        t   0x0001d8       data     static D:\Final\PIC_Module\Miner\Miner_Main.c
              tblptru_sav   0x000e7f       data     static D:\3.43\pic18-lt\cxx-framework\src\traditional\stdclib\mcpyp2r.asm
              tblptru_sav   0x000e7e       data     static D:\3.43\pic18-lt\cxx-framework\src\traditional\stdclib\mcmpp2r.asm
                      tmt   0x00017b       data     static D:\Final\PIC_Module\Miner\GetPutWork.c
                      uti   0x000c4c       data     static D:\Final\PIC_Module\Miner\Miner_WEB.c
         vARPAttemptCount   0x000198       data     static D:\Final\PIC_Module\Microchip\TCPIP Stack\DNS.c
         vDNSAttemptCount   0x000199       data     static D:\Final\PIC_Module\Microchip\TCPIP Stack\DNS.c
             vTickReading   0x0001d2       data     static D:\Final\PIC_Module\Microchip\TCPIP Stack\Tick.c
               wGetOffset   0x000e79       data     static D:\Final\PIC_Module\Microchip\TCPIP Stack\UDP.c
               wPutOffset   0x000e77       data     static D:\Final\PIC_Module\Microchip\TCPIP Stack\UDP.c
              wTXWatchdog   0x000f5e       data     static D:\Final\PIC_Module\Microchip\TCPIP Stack\ETH97J60.c
                       wh   0x0001b8       data     static D:\Final\PIC_Module\Miner\Miner_Main.c
                      who   0x0001e6       data     static D:\Final\PIC_Module\Microchip\TCPIP Stack\DNS.c
                       wm   0x0001ba       data     static D:\Final\PIC_Module\Miner\Miner_Main.c
                        x   0x0001bc       data     static D:\Final\PIC_Module\Miner\Miner_Main.c



                              Symbols - Sorted by Address
                     Name    Address   Location    Storage File                     
                ---------  ---------  ---------  --------- ---------                
                   _entry   0x000000    program     extern D:\3.43\pic18-lt\cxx-framework\src\traditional\startup\c018i.c
       ___return_lbl00000   0x000004    program     static                          
               HighVector   0x000008    program     extern D:\Final\PIC_Module\Miner\Miner_Main.c
       ___return_lbl00003   0x00000c    program     static                          
                LowVector   0x000018    program     extern D:\Final\PIC_Module\Miner\Miner_Main.c
       ___return_lbl00002   0x00001c    program     static                          
                     main   0x000040    program     extern D:\Final\PIC_Module\Miner\Miner_Main.c
           ___?:_lbl00024   0x000094    program     static                          
           ___?:_lbl00023   0x000096    program     static                          
           ___?:_lbl00026   0x0000f2    program     static                          
           ___?:_lbl00025   0x0000fe    program     static                          
           ___?:_lbl00028   0x00014a    program     static                          
           ___?:_lbl00027   0x000156    program     static                          
           ___if_lbl00029   0x0001ae    program     static                          
        ___while_lbl00030   0x0001b0    program     static                          
           ___if_lbl00032   0x0001d2    program     static                          
               __tmplbl_1   0x00020c    program     static                          
               __tmplbl_3   0x000242    program     static                          
               __tmplbl_2   0x00026c    program     static                          
         ___else_lbl00035   0x000284    program     static                          
           ___if_lbl00036   0x000288    program     static                          
           ___if_lbl00034   0x000288    program     static                          
           ___if_lbl00038   0x00028a    program     static                          
           ___if_lbl00037   0x00028a    program     static                          
        ___while_lbl00039   0x0002a0    program     static                          
        ___while_lbl00041   0x0002c8    program     static                          
               __tmplbl_4   0x0002fc    program     static                          
        ___while_lbl00042   0x000302    program     static                          
        ___while_lbl00043   0x000318    program     static                          
               __tmplbl_5   0x00034c    program     static                          
        ___while_lbl00044   0x000352    program     static                          
        ___while_lbl00040   0x000354    program     static                          
           ___if_lbl00045   0x000356    program     static                          
           ___?:_lbl00047   0x000366    program     static                          
           ___?:_lbl00046   0x000368    program     static                          
           ___if_lbl00048   0x000394    program     static                          
           ___if_lbl00049   0x000398    program     static                          
       ___return_lbl00022   0x0003aa    program     static                          
        ___while_lbl00031   0x0003aa    program     static                          
                 CheckMAC   0x0003be    program     static D:\Final\PIC_Module\Miner\Miner_Main.c
                CheckSRAM   0x0004b4    program     static D:\Final\PIC_Module\Miner\Miner_Main.c
        ___while_lbl00069   0x0004e2    program     static                          
        ___while_lbl00070   0x0004e6    program     static                          
        ___while_lbl00071   0x0004ea    program     static                          
        ___while_lbl00072   0x0004ee    program     static                          
        ___while_lbl00073   0x0004fa    program     static                          
        ___while_lbl00074   0x0004fe    program     static                          
        ___while_lbl00075   0x000500    program     static                          
        ___while_lbl00076   0x000504    program     static                          
         ___else_lbl00078   0x00052c    program     static                          
           ___if_lbl00077   0x00054c    program     static                          
          ___for_lbl00104   0x000550    program     static                          
        ___while_lbl00081   0x000572    program     static                          
        ___while_lbl00082   0x000576    program     static                          
        ___while_lbl00083   0x000578    program     static                          
        ___while_lbl00084   0x00057c    program     static                          
        ___while_lbl00085   0x00057e    program     static                          
        ___while_lbl00086   0x000582    program     static                          
          ___for_lbl00091   0x00059c    program     static                          
        ___while_lbl00089   0x0005c2    program     static                          
        ___while_lbl00090   0x0005c6    program     static                          
          ___for_lbl00087   0x000614    program     static                          
          ___for_lbl00088   0x00061e    program     static                          
        ___while_lbl00092   0x000630    program     static                          
        ___while_lbl00093   0x000634    program     static                          
        ___while_lbl00094   0x000636    program     static                          
        ___while_lbl00095   0x00063a    program     static                          
        ___while_lbl00096   0x00063c    program     static                          
        ___while_lbl00097   0x000640    program     static                          
          ___for_lbl00103   0x00065a    program     static                          
        ___while_lbl00100   0x00067c    program     static                          
        ___while_lbl00101   0x000680    program     static                          
           ___if_lbl00102   0x00069e    program     static                          
          ___for_lbl00098   0x0006ec    program     static                          
          ___for_lbl00099   0x0006f6    program     static                          
          ___for_lbl00079   0x0006f8    program     static                          
          ___for_lbl00080   0x0006fe    program     static                          
         ___else_lbl00106   0x00071c    program     static                          
           ___if_lbl00105   0x000732    program     static                          
        ___while_lbl00107   0x000738    program     static                          
        ___while_lbl00108   0x00073c    program     static                          
        ___while_lbl00109   0x00073e    program     static                          
        ___while_lbl00110   0x000742    program     static                          
        ___while_lbl00111   0x000744    program     static                          
        ___while_lbl00112   0x000748    program     static                          
          ___for_lbl00115   0x00074c    program     static                          
          ___for_lbl00113   0x00076e    program     static                          
          ___for_lbl00114   0x000778    program     static                          
        ___while_lbl00116   0x000778    program     static                          
        ___while_lbl00117   0x00077c    program     static                          
           ___if_lbl00118   0x00079a    program     static                          
       ___return_lbl00068   0x0007a0    program     static                          
                 GetExist   0x0007b8    program     extern D:\Final\PIC_Module\Miner\Miner_Main.c
                 SetExist   0x0007e4    program     extern D:\Final\PIC_Module\Miner\Miner_Main.c
                 ClrExist   0x000808    program     extern D:\Final\PIC_Module\Miner\Miner_Main.c
                  PutStat   0x00082e    program     static D:\Final\PIC_Module\Miner\Miner_Main.c
               CheckNonce   0x000840    program     static D:\Final\PIC_Module\Miner\Miner_Main.c
                CheckASIC   0x000946    program     static D:\Final\PIC_Module\Miner\Miner_Main.c
              ReInitBoard   0x000b18    program     static D:\Final\PIC_Module\Miner\Miner_Main.c
          InitializeBoard   0x000b44    program     static D:\Final\PIC_Module\Miner\Miner_Main.c
                  __pa_13   0x000b9c    program     static D:\Final\PIC_Module\Miner\Miner_Main.c
                  __pa_14   0x000bce    program     static D:\Final\PIC_Module\Miner\Miner_Main.c
                  __pa_15   0x000bfc    program     static D:\Final\PIC_Module\Miner\Miner_Main.c
                  __pa_16   0x000c0a    program     static D:\Final\PIC_Module\Miner\Miner_Main.c
                  __pa_17   0x000c1e    program     static D:\Final\PIC_Module\Miner\Miner_Main.c
                  __pa_18   0x000c34    program     static D:\Final\PIC_Module\Miner\Miner_Main.c
                  __pa_19   0x000c4a    program     static D:\Final\PIC_Module\Miner\Miner_Main.c
                  __pa_20   0x000c58    program     static D:\Final\PIC_Module\Miner\Miner_Main.c
                  __pa_21   0x000c60    program     static D:\Final\PIC_Module\Miner\Miner_Main.c
                  __pa_22   0x000c68    program     static D:\Final\PIC_Module\Miner\Miner_Main.c
                  __pa_23   0x000c84    program     static D:\Final\PIC_Module\Miner\Miner_Main.c
                  __pa_24   0x000ca0    program     static D:\Final\PIC_Module\Miner\Miner_Main.c
                  __pa_25   0x000cba    program     static D:\Final\PIC_Module\Miner\Miner_Main.c
                  __pa_26   0x000cc8    program     static D:\Final\PIC_Module\Miner\Miner_Main.c
                  __pa_27   0x000cd4    program     static D:\Final\PIC_Module\Miner\Miner_Main.c
                  __pa_28   0x000cdc    program     static D:\Final\PIC_Module\Miner\Miner_Main.c
                  __pa_29   0x000cea    program     static D:\Final\PIC_Module\Miner\Miner_Main.c
                  __pa_30   0x000cf8    program     static D:\Final\PIC_Module\Miner\Miner_Main.c
                  __pa_31   0x000d02    program     static D:\Final\PIC_Module\Miner\Miner_Main.c
                  __pa_32   0x000d10    program     static D:\Final\PIC_Module\Miner\Miner_Main.c
              SyncTCBStub   0x000d94    program     static D:\Final\PIC_Module\Microchip\TCPIP Stack\TCP.c
                  SyncTCB   0x000dea    program     static D:\Final\PIC_Module\Microchip\TCPIP Stack\TCP.c
                  TCPInit   0x000e30    program     extern D:\Final\PIC_Module\Microchip\TCPIP Stack\TCP.c
                  TCPOpen   0x000f9e    program     extern D:\Final\PIC_Module\Microchip\TCPIP Stack\TCP.c
           TCPIsConnected   0x0010d2    program     extern D:\Final\PIC_Module\Microchip\TCPIP Stack\TCP.c
            TCPDisconnect   0x0010f4    program     extern D:\Final\PIC_Module\Microchip\TCPIP Stack\TCP.c
         TCPGetRemoteInfo   0x001150    program     extern D:\Final\PIC_Module\Microchip\TCPIP Stack\TCP.c
                 TCPFlush   0x001186    program     extern D:\Final\PIC_Module\Microchip\TCPIP Stack\TCP.c
            TCPIsPutReady   0x0011a2    program     extern D:\Final\PIC_Module\Microchip\TCPIP Stack\TCP.c
                   TCPPut   0x00120a    program     extern D:\Final\PIC_Module\Microchip\TCPIP Stack\TCP.c
              TCPPutArray   0x0012a0    program     extern D:\Final\PIC_Module\Microchip\TCPIP Stack\TCP.c
           TCPPutROMArray   0x001330    program     extern D:\Final\PIC_Module\Microchip\TCPIP Stack\TCP.c
             TCPPutString   0x0013b8    program     extern D:\Final\PIC_Module\Microchip\TCPIP Stack\TCP.c
          TCPPutROMString   0x001410    program     extern D:\Final\PIC_Module\Microchip\TCPIP Stack\TCP.c
         TCPGetTxFIFOFull   0x001476    program     extern D:\Final\PIC_Module\Microchip\TCPIP Stack\TCP.c
               TCPDiscard   0x0014a0    program     extern D:\Final\PIC_Module\Microchip\TCPIP Stack\TCP.c
            TCPIsGetReady   0x0014c4    program     extern D:\Final\PIC_Module\Microchip\TCPIP Stack\TCP.c
                   TCPGet   0x00150a    program     extern D:\Final\PIC_Module\Microchip\TCPIP Stack\TCP.c
              TCPGetArray   0x00157e    program     extern D:\Final\PIC_Module\Microchip\TCPIP Stack\TCP.c
         TCPGetRxFIFOFree   0x00169c    program     extern D:\Final\PIC_Module\Microchip\TCPIP Stack\TCP.c
           TCPFindArrayEx   0x0016c4    program     extern D:\Final\PIC_Module\Microchip\TCPIP Stack\TCP.c
                TCPFindEx   0x001a04    program     extern D:\Final\PIC_Module\Microchip\TCPIP Stack\TCP.c
                  TCPTick   0x001a3a    program     extern D:\Final\PIC_Module\Microchip\TCPIP Stack\TCP.c
               TCPProcess   0x001eb8    program     extern D:\Final\PIC_Module\Microchip\TCPIP Stack\TCP.c
                  SendTCP   0x00200e    program     static D:\Final\PIC_Module\Microchip\TCPIP Stack\TCP.c
       FindMatchingSocket   0x002540    program     static D:\Final\PIC_Module\Microchip\TCPIP Stack\TCP.c
            SwapTCPHeader   0x0027be    program     static D:\Final\PIC_Module\Microchip\TCPIP Stack\TCP.c
              CloseSocket   0x00283a    program     static D:\Final\PIC_Module\Microchip\TCPIP Stack\TCP.c
             HandleTCPSeg   0x0028b8    program     static D:\Final\PIC_Module\Microchip\TCPIP Stack\TCP.c
             __tmplbl_153   0x00331c    program     static                          
             __tmplbl_155   0x00331c    program     static                          
             __tmplbl_165   0x00332a    program     static                          
             __tmplbl_156   0x00332a    program     static                          
             __tmplbl_164   0x00332a    program     static                          
             __tmplbl_162   0x00332a    program     static                          
        TCPAdjustFIFOSize   0x003338    program     extern D:\Final\PIC_Module\Microchip\TCPIP Stack\TCP.c
               TCPRAMCopy   0x0034f4    program     static D:\Final\PIC_Module\Microchip\TCPIP Stack\TCP.c
            TCPRAMCopyROM   0x003644    program     static D:\Final\PIC_Module\Microchip\TCPIP Stack\TCP.c
                   __pa_0   0x0036c2    program     static D:\Final\PIC_Module\Microchip\TCPIP Stack\TCP.c
                   __pa_1   0x0036ea    program     static D:\Final\PIC_Module\Microchip\TCPIP Stack\TCP.c
                   __pa_2   0x0036f8    program     static D:\Final\PIC_Module\Microchip\TCPIP Stack\TCP.c
                   __pa_3   0x00374c    program     static D:\Final\PIC_Module\Microchip\TCPIP Stack\TCP.c
                   __pa_4   0x0037e2    program     static D:\Final\PIC_Module\Microchip\TCPIP Stack\TCP.c
                   __pa_5   0x0037ec    program     static D:\Final\PIC_Module\Microchip\TCPIP Stack\TCP.c
                   __pa_6   0x003814    program     static D:\Final\PIC_Module\Microchip\TCPIP Stack\TCP.c
                   __pa_7   0x003822    program     static D:\Final\PIC_Module\Microchip\TCPIP Stack\TCP.c
                   __pa_8   0x00382e    program     static D:\Final\PIC_Module\Microchip\TCPIP Stack\TCP.c
             __tmplbl_104   0x003838    program     static                          
              __tmplbl_88   0x003838    program     static                          
              __tmplbl_86   0x003838    program     static                          
              __tmplbl_84   0x003838    program     static                          
              __tmplbl_83   0x003838    program     static                          
              __tmplbl_82   0x003838    program     static                          
              __tmplbl_81   0x003838    program     static                          
              __tmplbl_80   0x003838    program     static                          
              __tmplbl_79   0x003838    program     static                          
              __tmplbl_75   0x003838    program     static                          
              __tmplbl_73   0x003838    program     static                          
             __tmplbl_100   0x003838    program     static                          
              __tmplbl_99   0x003838    program     static                          
              __tmplbl_97   0x003838    program     static                          
              __tmplbl_95   0x003838    program     static                          
              __tmplbl_94   0x003838    program     static                          
              __tmplbl_93   0x003838    program     static                          
              __tmplbl_92   0x003838    program     static                          
              __tmplbl_91   0x003838    program     static                          
              __tmplbl_90   0x003838    program     static                          
             __tmplbl_150   0x003838    program     static                          
                   __pa_9   0x003838    program     static D:\Final\PIC_Module\Microchip\TCPIP Stack\TCP.c
             __tmplbl_103   0x003838    program     static                          
             __tmplbl_128   0x003838    program     static                          
             __tmplbl_129   0x003838    program     static                          
             __tmplbl_146   0x003838    program     static                          
             __tmplbl_149   0x003838    program     static                          
                  __pa_10   0x003840    program     static D:\Final\PIC_Module\Microchip\TCPIP Stack\TCP.c
                  __pa_11   0x003848    program     static D:\Final\PIC_Module\Microchip\TCPIP Stack\TCP.c
                  __pa_12   0x003850    program     static D:\Final\PIC_Module\Microchip\TCPIP Stack\TCP.c
                  __pa_13   0x003856    program     static D:\Final\PIC_Module\Microchip\TCPIP Stack\TCP.c
                  __pa_14   0x003860    program     static D:\Final\PIC_Module\Microchip\TCPIP Stack\TCP.c
                  __pa_15   0x003868    program     static D:\Final\PIC_Module\Microchip\TCPIP Stack\TCP.c
                  __pa_16   0x003870    program     static D:\Final\PIC_Module\Microchip\TCPIP Stack\TCP.c
                  __pa_17   0x00387c    program     static D:\Final\PIC_Module\Microchip\TCPIP Stack\TCP.c
                  __pa_18   0x003896    program     static D:\Final\PIC_Module\Microchip\TCPIP Stack\TCP.c
                  __pa_19   0x0038a2    program     static D:\Final\PIC_Module\Microchip\TCPIP Stack\TCP.c
                  __pa_20   0x0038b0    program     static D:\Final\PIC_Module\Microchip\TCPIP Stack\TCP.c
                  __pa_21   0x0038c8    program     static D:\Final\PIC_Module\Microchip\TCPIP Stack\TCP.c
                  __pa_22   0x0038d2    program     static D:\Final\PIC_Module\Microchip\TCPIP Stack\TCP.c
                  __pa_23   0x0038fa    program     static D:\Final\PIC_Module\Microchip\TCPIP Stack\TCP.c
                  __pa_24   0x003906    program     static D:\Final\PIC_Module\Microchip\TCPIP Stack\TCP.c
                  __pa_25   0x003914    program     static D:\Final\PIC_Module\Microchip\TCPIP Stack\TCP.c
                  __pa_26   0x00392a    program     static D:\Final\PIC_Module\Microchip\TCPIP Stack\TCP.c
                  __pa_27   0x003934    program     static D:\Final\PIC_Module\Microchip\TCPIP Stack\TCP.c
                  __pa_28   0x00393e    program     static D:\Final\PIC_Module\Microchip\TCPIP Stack\TCP.c
                  __pa_29   0x003948    program     static D:\Final\PIC_Module\Microchip\TCPIP Stack\TCP.c
                  __pa_30   0x003952    program     static D:\Final\PIC_Module\Microchip\TCPIP Stack\TCP.c
                  __pa_31   0x003960    program     static D:\Final\PIC_Module\Microchip\TCPIP Stack\TCP.c
                  __pa_32   0x00396e    program     static D:\Final\PIC_Module\Microchip\TCPIP Stack\TCP.c
                  __pa_33   0x00397c    program     static D:\Final\PIC_Module\Microchip\TCPIP Stack\TCP.c
                  __pa_34   0x00399e    program     static D:\Final\PIC_Module\Microchip\TCPIP Stack\TCP.c
                  __pa_35   0x0039b2    program     static D:\Final\PIC_Module\Microchip\TCPIP Stack\TCP.c
                  __pa_36   0x0039c6    program     static D:\Final\PIC_Module\Microchip\TCPIP Stack\TCP.c
                  __pa_37   0x0039e2    program     static D:\Final\PIC_Module\Microchip\TCPIP Stack\TCP.c
                  __pa_38   0x003a04    program     static D:\Final\PIC_Module\Microchip\TCPIP Stack\TCP.c
                  __pa_39   0x003a1e    program     static D:\Final\PIC_Module\Microchip\TCPIP Stack\TCP.c
                  __pa_40   0x003a2e    program     static D:\Final\PIC_Module\Microchip\TCPIP Stack\TCP.c
                  __pa_41   0x003a34    program     static D:\Final\PIC_Module\Microchip\TCPIP Stack\TCP.c
                  __pa_42   0x003a44    program     static D:\Final\PIC_Module\Microchip\TCPIP Stack\TCP.c
                  __pa_43   0x003a54    program     static D:\Final\PIC_Module\Microchip\TCPIP Stack\TCP.c
                  __pa_44   0x003a5e    program     static D:\Final\PIC_Module\Microchip\TCPIP Stack\TCP.c
                  __pa_45   0x003a76    program     static D:\Final\PIC_Module\Microchip\TCPIP Stack\TCP.c
                  __pa_46   0x003a88    program     static D:\Final\PIC_Module\Microchip\TCPIP Stack\TCP.c
                  __pa_47   0x003a92    program     static D:\Final\PIC_Module\Microchip\TCPIP Stack\TCP.c
                  __pa_48   0x003a9c    program     static D:\Final\PIC_Module\Microchip\TCPIP Stack\TCP.c
                  __pa_49   0x003ab6    program     static D:\Final\PIC_Module\Microchip\TCPIP Stack\TCP.c
                  __pa_50   0x003adc    program     static D:\Final\PIC_Module\Microchip\TCPIP Stack\TCP.c
                  __pa_51   0x003afc    program     static D:\Final\PIC_Module\Microchip\TCPIP Stack\TCP.c
                  __pa_52   0x003b16    program     static D:\Final\PIC_Module\Microchip\TCPIP Stack\TCP.c
                  __pa_53   0x003b22    program     static D:\Final\PIC_Module\Microchip\TCPIP Stack\TCP.c
                  __pa_54   0x003b38    program     static D:\Final\PIC_Module\Microchip\TCPIP Stack\TCP.c
                  __pa_55   0x003b44    program     static D:\Final\PIC_Module\Microchip\TCPIP Stack\TCP.c
                  __pa_56   0x003b52    program     static D:\Final\PIC_Module\Microchip\TCPIP Stack\TCP.c
                  __pa_57   0x003b60    program     static D:\Final\PIC_Module\Microchip\TCPIP Stack\TCP.c
                  __pa_58   0x003b6e    program     static D:\Final\PIC_Module\Microchip\TCPIP Stack\TCP.c
                  __pa_59   0x003b7c    program     static D:\Final\PIC_Module\Microchip\TCPIP Stack\TCP.c
                  __pa_60   0x003b9a    program     static D:\Final\PIC_Module\Microchip\TCPIP Stack\TCP.c
                  __pa_61   0x003bbe    program     static D:\Final\PIC_Module\Microchip\TCPIP Stack\TCP.c
                  __pa_62   0x003bd2    program     static D:\Final\PIC_Module\Microchip\TCPIP Stack\TCP.c
                  __pa_63   0x003be6    program     static D:\Final\PIC_Module\Microchip\TCPIP Stack\TCP.c
                  __pa_64   0x003bf0    program     static D:\Final\PIC_Module\Microchip\TCPIP Stack\TCP.c
                  __pa_65   0x003c02    program     static D:\Final\PIC_Module\Microchip\TCPIP Stack\TCP.c
                  __pa_66   0x003c14    program     static D:\Final\PIC_Module\Microchip\TCPIP Stack\TCP.c
                  __pa_67   0x003c34    program     static D:\Final\PIC_Module\Microchip\TCPIP Stack\TCP.c
                  __pa_68   0x003c52    program     static D:\Final\PIC_Module\Microchip\TCPIP Stack\TCP.c
                  __pa_69   0x003c70    program     static D:\Final\PIC_Module\Microchip\TCPIP Stack\TCP.c
                  __pa_70   0x003c84    program     static D:\Final\PIC_Module\Microchip\TCPIP Stack\TCP.c
                  __pa_71   0x003c8e    program     static D:\Final\PIC_Module\Microchip\TCPIP Stack\TCP.c
                  __pa_72   0x003c9c    program     static D:\Final\PIC_Module\Microchip\TCPIP Stack\TCP.c
                  __pa_73   0x003caa    program     static D:\Final\PIC_Module\Microchip\TCPIP Stack\TCP.c
                  __pa_74   0x003cb6    program     static D:\Final\PIC_Module\Microchip\TCPIP Stack\TCP.c
                  __pa_75   0x003cc2    program     static D:\Final\PIC_Module\Microchip\TCPIP Stack\TCP.c
                  __pa_76   0x003ccc    program     static D:\Final\PIC_Module\Microchip\TCPIP Stack\TCP.c
                  __pa_77   0x003cd6    program     static D:\Final\PIC_Module\Microchip\TCPIP Stack\TCP.c
                  __pa_78   0x003ce0    program     static D:\Final\PIC_Module\Microchip\TCPIP Stack\TCP.c
                  __pa_79   0x003cea    program     static D:\Final\PIC_Module\Microchip\TCPIP Stack\TCP.c
                  __pa_80   0x003d06    program     static D:\Final\PIC_Module\Microchip\TCPIP Stack\TCP.c
                  __pa_81   0x003d20    program     static D:\Final\PIC_Module\Microchip\TCPIP Stack\TCP.c
                  __pa_82   0x003d3a    program     static D:\Final\PIC_Module\Microchip\TCPIP Stack\TCP.c
                  __pa_83   0x003d54    program     static D:\Final\PIC_Module\Microchip\TCPIP Stack\TCP.c
                  __pa_84   0x003d5c    program     static D:\Final\PIC_Module\Microchip\TCPIP Stack\TCP.c
                  __pa_85   0x003d6c    program     static D:\Final\PIC_Module\Microchip\TCPIP Stack\TCP.c
                  __pa_86   0x003d76    program     static D:\Final\PIC_Module\Microchip\TCPIP Stack\TCP.c
                  __pa_87   0x003d80    program     static D:\Final\PIC_Module\Microchip\TCPIP Stack\TCP.c
                  __pa_88   0x003d86    program     static D:\Final\PIC_Module\Microchip\TCPIP Stack\TCP.c
                  __pa_89   0x003d96    program     static D:\Final\PIC_Module\Microchip\TCPIP Stack\TCP.c
                  __pa_90   0x003da2    program     static D:\Final\PIC_Module\Microchip\TCPIP Stack\TCP.c
                  __pa_91   0x003daa    program     static D:\Final\PIC_Module\Microchip\TCPIP Stack\TCP.c
                  __pa_92   0x003db8    program     static D:\Final\PIC_Module\Microchip\TCPIP Stack\TCP.c
                  __pa_93   0x003dc8    program     static D:\Final\PIC_Module\Microchip\TCPIP Stack\TCP.c
                  __pa_94   0x003dd8    program     static D:\Final\PIC_Module\Microchip\TCPIP Stack\TCP.c
                  __pa_95   0x003dee    program     static D:\Final\PIC_Module\Microchip\TCPIP Stack\TCP.c
                  __pa_96   0x003e04    program     static D:\Final\PIC_Module\Microchip\TCPIP Stack\TCP.c
                  __pa_97   0x003e1a    program     static D:\Final\PIC_Module\Microchip\TCPIP Stack\TCP.c
                  __pa_98   0x003e28    program     static D:\Final\PIC_Module\Microchip\TCPIP Stack\TCP.c
                  __pa_99   0x003e36    program     static D:\Final\PIC_Module\Microchip\TCPIP Stack\TCP.c
                 __pa_100   0x003e3e    program     static D:\Final\PIC_Module\Microchip\TCPIP Stack\TCP.c
                 __pa_101   0x003e4c    program     static D:\Final\PIC_Module\Microchip\TCPIP Stack\TCP.c
                 __pa_102   0x003e5a    program     static D:\Final\PIC_Module\Microchip\TCPIP Stack\TCP.c
                 __pa_103   0x003e68    program     static D:\Final\PIC_Module\Microchip\TCPIP Stack\TCP.c
                 __pa_104   0x003e76    program     static D:\Final\PIC_Module\Microchip\TCPIP Stack\TCP.c
                 __pa_105   0x003e84    program     static D:\Final\PIC_Module\Microchip\TCPIP Stack\TCP.c
                 __pa_106   0x003e92    program     static D:\Final\PIC_Module\Microchip\TCPIP Stack\TCP.c
                 __pa_107   0x003e9c    program     static D:\Final\PIC_Module\Microchip\TCPIP Stack\TCP.c
                 __pa_108   0x003ea6    program     static D:\Final\PIC_Module\Microchip\TCPIP Stack\TCP.c
                 __pa_109   0x003eb0    program     static D:\Final\PIC_Module\Microchip\TCPIP Stack\TCP.c
                 __pa_110   0x003eba    program     static D:\Final\PIC_Module\Microchip\TCPIP Stack\TCP.c
                 __pa_111   0x003ec4    program     static D:\Final\PIC_Module\Microchip\TCPIP Stack\TCP.c
                 __pa_112   0x003ece    program     static D:\Final\PIC_Module\Microchip\TCPIP Stack\TCP.c
                 __pa_113   0x003ee2    program     static D:\Final\PIC_Module\Microchip\TCPIP Stack\TCP.c
                 __pa_114   0x003ef6    program     static D:\Final\PIC_Module\Microchip\TCPIP Stack\TCP.c
                 __pa_115   0x003f08    program     static D:\Final\PIC_Module\Microchip\TCPIP Stack\TCP.c
                 __pa_116   0x003f1a    program     static D:\Final\PIC_Module\Microchip\TCPIP Stack\TCP.c
                 __pa_117   0x003f2c    program     static D:\Final\PIC_Module\Microchip\TCPIP Stack\TCP.c
                 __pa_118   0x003f3e    program     static D:\Final\PIC_Module\Microchip\TCPIP Stack\TCP.c
                 __pa_119   0x003f50    program     static D:\Final\PIC_Module\Microchip\TCPIP Stack\TCP.c
                 __pa_120   0x003f62    program     static D:\Final\PIC_Module\Microchip\TCPIP Stack\TCP.c
                 __pa_121   0x003f74    program     static D:\Final\PIC_Module\Microchip\TCPIP Stack\TCP.c
                 __pa_122   0x003f86    program     static D:\Final\PIC_Module\Microchip\TCPIP Stack\TCP.c
                 __pa_123   0x003f92    program     static D:\Final\PIC_Module\Microchip\TCPIP Stack\TCP.c
                 __pa_124   0x003f9e    program     static D:\Final\PIC_Module\Microchip\TCPIP Stack\TCP.c
                 __pa_125   0x003fa8    program     static D:\Final\PIC_Module\Microchip\TCPIP Stack\TCP.c
                 __pa_126   0x003fb2    program     static D:\Final\PIC_Module\Microchip\TCPIP Stack\TCP.c
                 __pa_127   0x003fbc    program     static D:\Final\PIC_Module\Microchip\TCPIP Stack\TCP.c
                 __pa_128   0x003fc2    program     static D:\Final\PIC_Module\Microchip\TCPIP Stack\TCP.c
                 __pa_129   0x003fd2    program     static D:\Final\PIC_Module\Microchip\TCPIP Stack\TCP.c
                 __pa_130   0x003fe2    program     static D:\Final\PIC_Module\Microchip\TCPIP Stack\TCP.c
                 __pa_131   0x003ff2    program     static D:\Final\PIC_Module\Microchip\TCPIP Stack\TCP.c
                 __pa_132   0x004000    program     static D:\Final\PIC_Module\Microchip\TCPIP Stack\TCP.c
                 __pa_133   0x00400e    program     static D:\Final\PIC_Module\Microchip\TCPIP Stack\TCP.c
                 __pa_134   0x00401c    program     static D:\Final\PIC_Module\Microchip\TCPIP Stack\TCP.c
                 __pa_135   0x00402a    program     static D:\Final\PIC_Module\Microchip\TCPIP Stack\TCP.c
                 __pa_136   0x004032    program     static D:\Final\PIC_Module\Microchip\TCPIP Stack\TCP.c
                 __pa_137   0x004040    program     static D:\Final\PIC_Module\Microchip\TCPIP Stack\TCP.c
                 __pa_138   0x00404e    program     static D:\Final\PIC_Module\Microchip\TCPIP Stack\TCP.c
                 __pa_139   0x00405c    program     static D:\Final\PIC_Module\Microchip\TCPIP Stack\TCP.c
                 __pa_140   0x00406a    program     static D:\Final\PIC_Module\Microchip\TCPIP Stack\TCP.c
                 __pa_141   0x004078    program     static D:\Final\PIC_Module\Microchip\TCPIP Stack\TCP.c
                 __pa_142   0x004086    program     static D:\Final\PIC_Module\Microchip\TCPIP Stack\TCP.c
                 __pa_143   0x00408e    program     static D:\Final\PIC_Module\Microchip\TCPIP Stack\TCP.c
                 __pa_144   0x00409c    program     static D:\Final\PIC_Module\Microchip\TCPIP Stack\TCP.c
                 __pa_145   0x0040aa    program     static D:\Final\PIC_Module\Microchip\TCPIP Stack\TCP.c
                 __pa_146   0x0040b8    program     static D:\Final\PIC_Module\Microchip\TCPIP Stack\TCP.c
                 __pa_147   0x0040c6    program     static D:\Final\PIC_Module\Microchip\TCPIP Stack\TCP.c
                 __pa_148   0x0040d4    program     static D:\Final\PIC_Module\Microchip\TCPIP Stack\TCP.c
                 __pa_149   0x0040e2    program     static D:\Final\PIC_Module\Microchip\TCPIP Stack\TCP.c
                 __pa_150   0x0040f0    program     static D:\Final\PIC_Module\Microchip\TCPIP Stack\TCP.c
                 __pa_151   0x0040fa    program     static D:\Final\PIC_Module\Microchip\TCPIP Stack\TCP.c
                 __pa_152   0x004104    program     static D:\Final\PIC_Module\Microchip\TCPIP Stack\TCP.c
                 __pa_153   0x00410e    program     static D:\Final\PIC_Module\Microchip\TCPIP Stack\TCP.c
                 __pa_154   0x004118    program     static D:\Final\PIC_Module\Microchip\TCPIP Stack\TCP.c
                 __pa_155   0x004122    program     static D:\Final\PIC_Module\Microchip\TCPIP Stack\TCP.c
                 __pa_156   0x00412c    program     static D:\Final\PIC_Module\Microchip\TCPIP Stack\TCP.c
                 __pa_157   0x004136    program     static D:\Final\PIC_Module\Microchip\TCPIP Stack\TCP.c
                 __pa_158   0x00413e    program     static D:\Final\PIC_Module\Microchip\TCPIP Stack\TCP.c
                 __pa_159   0x004146    program     static D:\Final\PIC_Module\Microchip\TCPIP Stack\TCP.c
                 __pa_160   0x004150    program     static D:\Final\PIC_Module\Microchip\TCPIP Stack\TCP.c
                 __pa_161   0x00416c    program     static D:\Final\PIC_Module\Microchip\TCPIP Stack\TCP.c
                 __pa_162   0x00417c    program     static D:\Final\PIC_Module\Microchip\TCPIP Stack\TCP.c
                 __pa_163   0x00418c    program     static D:\Final\PIC_Module\Microchip\TCPIP Stack\TCP.c
                 __pa_164   0x00419a    program     static D:\Final\PIC_Module\Microchip\TCPIP Stack\TCP.c
                 __pa_165   0x0041a4    program     static D:\Final\PIC_Module\Microchip\TCPIP Stack\TCP.c
                 __pa_166   0x0041ce    program     static D:\Final\PIC_Module\Microchip\TCPIP Stack\TCP.c
                 __pa_167   0x0041e4    program     static D:\Final\PIC_Module\Microchip\TCPIP Stack\TCP.c
                 __pa_168   0x0041fa    program     static D:\Final\PIC_Module\Microchip\TCPIP Stack\TCP.c
                 __pa_169   0x004208    program     static D:\Final\PIC_Module\Microchip\TCPIP Stack\TCP.c
                 __pa_170   0x004210    program     static D:\Final\PIC_Module\Microchip\TCPIP Stack\TCP.c
                 __pa_171   0x00421c    program     static D:\Final\PIC_Module\Microchip\TCPIP Stack\TCP.c
                 __pa_172   0x004226    program     static D:\Final\PIC_Module\Microchip\TCPIP Stack\TCP.c
                 __pa_173   0x004232    program     static D:\Final\PIC_Module\Microchip\TCPIP Stack\TCP.c
                 __pa_174   0x00423a    program     static D:\Final\PIC_Module\Microchip\TCPIP Stack\TCP.c
                 __pa_175   0x004242    program     static D:\Final\PIC_Module\Microchip\TCPIP Stack\TCP.c
                 __pa_176   0x004258    program     static D:\Final\PIC_Module\Microchip\TCPIP Stack\TCP.c
                 __pa_177   0x004274    program     static D:\Final\PIC_Module\Microchip\TCPIP Stack\TCP.c
                 __pa_178   0x004290    program     static D:\Final\PIC_Module\Microchip\TCPIP Stack\TCP.c
                 __pa_179   0x0042a4    program     static D:\Final\PIC_Module\Microchip\TCPIP Stack\TCP.c
                 __pa_180   0x0042b2    program     static D:\Final\PIC_Module\Microchip\TCPIP Stack\TCP.c
                 __pa_181   0x0042bc    program     static D:\Final\PIC_Module\Microchip\TCPIP Stack\TCP.c
                 __pa_182   0x0042c2    program     static D:\Final\PIC_Module\Microchip\TCPIP Stack\TCP.c
                 __pa_183   0x0042cc    program     static D:\Final\PIC_Module\Microchip\TCPIP Stack\TCP.c
                 __pa_184   0x0042d6    program     static D:\Final\PIC_Module\Microchip\TCPIP Stack\TCP.c
                 __pa_185   0x0042f0    program     static D:\Final\PIC_Module\Microchip\TCPIP Stack\TCP.c
                 __pa_186   0x004306    program     static D:\Final\PIC_Module\Microchip\TCPIP Stack\TCP.c
                 __pa_187   0x00430e    program     static D:\Final\PIC_Module\Microchip\TCPIP Stack\TCP.c
                 __pa_188   0x004318    program     static D:\Final\PIC_Module\Microchip\TCPIP Stack\TCP.c
                 __pa_189   0x004324    program     static D:\Final\PIC_Module\Microchip\TCPIP Stack\TCP.c
                 __pa_190   0x004338    program     static D:\Final\PIC_Module\Microchip\TCPIP Stack\TCP.c
                 __pa_191   0x00434c    program     static D:\Final\PIC_Module\Microchip\TCPIP Stack\TCP.c
                 __pa_192   0x004358    program     static D:\Final\PIC_Module\Microchip\TCPIP Stack\TCP.c
                 __pa_193   0x004364    program     static D:\Final\PIC_Module\Microchip\TCPIP Stack\TCP.c
                 __pa_194   0x004370    program     static D:\Final\PIC_Module\Microchip\TCPIP Stack\TCP.c
                 __pa_195   0x00437e    program     static D:\Final\PIC_Module\Microchip\TCPIP Stack\TCP.c
                 __pa_196   0x004388    program     static D:\Final\PIC_Module\Microchip\TCPIP Stack\TCP.c
                 __pa_197   0x004390    program     static D:\Final\PIC_Module\Microchip\TCPIP Stack\TCP.c
                 __pa_198   0x0043a2    program     static D:\Final\PIC_Module\Microchip\TCPIP Stack\TCP.c
                 __pa_199   0x0043b4    program     static D:\Final\PIC_Module\Microchip\TCPIP Stack\TCP.c
                 __pa_200   0x0043c6    program     static D:\Final\PIC_Module\Microchip\TCPIP Stack\TCP.c
                 __pa_201   0x0043d4    program     static D:\Final\PIC_Module\Microchip\TCPIP Stack\TCP.c
                 __pa_202   0x0043e6    program     static D:\Final\PIC_Module\Microchip\TCPIP Stack\TCP.c
                 __pa_203   0x0043f4    program     static D:\Final\PIC_Module\Microchip\TCPIP Stack\TCP.c
                 __pa_204   0x004400    program     static D:\Final\PIC_Module\Microchip\TCPIP Stack\TCP.c
             __tmplbl_218   0x004410    program     static                          
             __tmplbl_217   0x004410    program     static                          
                 __pa_205   0x004410    program     static D:\Final\PIC_Module\Microchip\TCPIP Stack\TCP.c
                 __pa_206   0x004420    program     static D:\Final\PIC_Module\Microchip\TCPIP Stack\TCP.c
             __tmplbl_215   0x00442a    program     static                          
                 __pa_207   0x00442a    program     static D:\Final\PIC_Module\Microchip\TCPIP Stack\TCP.c
                 __pa_208   0x004434    program     static D:\Final\PIC_Module\Microchip\TCPIP Stack\TCP.c
                 __pa_209   0x00443c    program     static D:\Final\PIC_Module\Microchip\TCPIP Stack\TCP.c
                 __pa_210   0x004446    program     static D:\Final\PIC_Module\Microchip\TCPIP Stack\TCP.c
                 __pa_211   0x004450    program     static D:\Final\PIC_Module\Microchip\TCPIP Stack\TCP.c
                 __pa_212   0x00445a    program     static D:\Final\PIC_Module\Microchip\TCPIP Stack\TCP.c
                 __pa_213   0x004464    program     static D:\Final\PIC_Module\Microchip\TCPIP Stack\TCP.c
                 __pa_214   0x00446c    program     static D:\Final\PIC_Module\Microchip\TCPIP Stack\TCP.c
                 __pa_215   0x00447a    program     static D:\Final\PIC_Module\Microchip\TCPIP Stack\TCP.c
                 __pa_216   0x004486    program     static D:\Final\PIC_Module\Microchip\TCPIP Stack\TCP.c
                 __pa_217   0x004494    program     static D:\Final\PIC_Module\Microchip\TCPIP Stack\TCP.c
                 __pa_218   0x0044a2    program     static D:\Final\PIC_Module\Microchip\TCPIP Stack\TCP.c
                 __pa_219   0x0044b2    program     static D:\Final\PIC_Module\Microchip\TCPIP Stack\TCP.c
                 __pa_220   0x0044c0    program     static D:\Final\PIC_Module\Microchip\TCPIP Stack\TCP.c
                 __pa_221   0x0044cc    program     static D:\Final\PIC_Module\Microchip\TCPIP Stack\TCP.c
                 __pa_222   0x0044d8    program     static D:\Final\PIC_Module\Microchip\TCPIP Stack\TCP.c
                 __pa_223   0x0044e4    program     static D:\Final\PIC_Module\Microchip\TCPIP Stack\TCP.c
                 __pa_224   0x0044f0    program     static D:\Final\PIC_Module\Microchip\TCPIP Stack\TCP.c
                 __pa_225   0x0044fe    program     static D:\Final\PIC_Module\Microchip\TCPIP Stack\TCP.c
                 __pa_226   0x00450a    program     static D:\Final\PIC_Module\Microchip\TCPIP Stack\TCP.c
                 __pa_227   0x004518    program     static D:\Final\PIC_Module\Microchip\TCPIP Stack\TCP.c
                 __pa_228   0x004526    program     static D:\Final\PIC_Module\Microchip\TCPIP Stack\TCP.c
                 __pa_229   0x004534    program     static D:\Final\PIC_Module\Microchip\TCPIP Stack\TCP.c
                 __pa_230   0x004542    program     static D:\Final\PIC_Module\Microchip\TCPIP Stack\TCP.c
                 __pa_231   0x004550    program     static D:\Final\PIC_Module\Microchip\TCPIP Stack\TCP.c
                 __pa_232   0x004558    program     static D:\Final\PIC_Module\Microchip\TCPIP Stack\TCP.c
                 __pa_233   0x004564    program     static D:\Final\PIC_Module\Microchip\TCPIP Stack\TCP.c
                 __pa_234   0x004570    program     static D:\Final\PIC_Module\Microchip\TCPIP Stack\TCP.c
                 __pa_235   0x00457e    program     static D:\Final\PIC_Module\Microchip\TCPIP Stack\TCP.c
                 __pa_236   0x00458c    program     static D:\Final\PIC_Module\Microchip\TCPIP Stack\TCP.c
                 __pa_237   0x00459a    program     static D:\Final\PIC_Module\Microchip\TCPIP Stack\TCP.c
                 __pa_238   0x0045a6    program     static D:\Final\PIC_Module\Microchip\TCPIP Stack\TCP.c
                 __pa_239   0x0045b4    program     static D:\Final\PIC_Module\Microchip\TCPIP Stack\TCP.c
             __tmplbl_216   0x0045b4    program     static                          
             __tmplbl_219   0x0045b4    program     static                          
                 __pa_240   0x0045c0    program     static D:\Final\PIC_Module\Microchip\TCPIP Stack\TCP.c
                 __pa_241   0x0045ce    program     static D:\Final\PIC_Module\Microchip\TCPIP Stack\TCP.c
                 __pa_242   0x0045dc    program     static D:\Final\PIC_Module\Microchip\TCPIP Stack\TCP.c
                 __pa_243   0x0045e6    program     static D:\Final\PIC_Module\Microchip\TCPIP Stack\TCP.c
                 __pa_244   0x0045f0    program     static D:\Final\PIC_Module\Microchip\TCPIP Stack\TCP.c
                 __pa_245   0x0045f8    program     static D:\Final\PIC_Module\Microchip\TCPIP Stack\TCP.c
                 __pa_246   0x004602    program     static D:\Final\PIC_Module\Microchip\TCPIP Stack\TCP.c
                 __pa_247   0x00460c    program     static D:\Final\PIC_Module\Microchip\TCPIP Stack\TCP.c
                 __pa_248   0x004616    program     static D:\Final\PIC_Module\Microchip\TCPIP Stack\TCP.c
                 __pa_249   0x004620    program     static D:\Final\PIC_Module\Microchip\TCPIP Stack\TCP.c
                 __pa_250   0x00462a    program     static D:\Final\PIC_Module\Microchip\TCPIP Stack\TCP.c
                 __pa_251   0x004632    program     static D:\Final\PIC_Module\Microchip\TCPIP Stack\TCP.c
                 __pa_252   0x00463a    program     static D:\Final\PIC_Module\Microchip\TCPIP Stack\TCP.c
                 __pa_253   0x004642    program     static D:\Final\PIC_Module\Microchip\TCPIP Stack\TCP.c
                 __pa_254   0x00464e    program     static D:\Final\PIC_Module\Microchip\TCPIP Stack\TCP.c
                 __pa_255   0x00465c    program     static D:\Final\PIC_Module\Microchip\TCPIP Stack\TCP.c
                 __pa_256   0x004666    program     static D:\Final\PIC_Module\Microchip\TCPIP Stack\TCP.c
                 __pa_257   0x00466e    program     static D:\Final\PIC_Module\Microchip\TCPIP Stack\TCP.c
                 __pa_258   0x004676    program     static D:\Final\PIC_Module\Microchip\TCPIP Stack\TCP.c
                 __pa_259   0x004686    program     static D:\Final\PIC_Module\Microchip\TCPIP Stack\TCP.c
                 __pa_260   0x004692    program     static D:\Final\PIC_Module\Microchip\TCPIP Stack\TCP.c
                 __pa_261   0x00469e    program     static D:\Final\PIC_Module\Microchip\TCPIP Stack\TCP.c
                 __pa_262   0x0046a6    program     static D:\Final\PIC_Module\Microchip\TCPIP Stack\TCP.c
                 __pa_263   0x0046ae    program     static D:\Final\PIC_Module\Microchip\TCPIP Stack\TCP.c
                 __pa_264   0x0046b4    program     static D:\Final\PIC_Module\Microchip\TCPIP Stack\TCP.c
                 __pa_265   0x0046c2    program     static D:\Final\PIC_Module\Microchip\TCPIP Stack\TCP.c
                 __pa_266   0x0046d0    program     static D:\Final\PIC_Module\Microchip\TCPIP Stack\TCP.c
                 __pa_267   0x0046dc    program     static D:\Final\PIC_Module\Microchip\TCPIP Stack\TCP.c
                 __pa_268   0x0046e8    program     static D:\Final\PIC_Module\Microchip\TCPIP Stack\TCP.c
                 __pa_269   0x0046f4    program     static D:\Final\PIC_Module\Microchip\TCPIP Stack\TCP.c
                 __pa_270   0x004702    program     static D:\Final\PIC_Module\Microchip\TCPIP Stack\TCP.c
                 __pa_271   0x00470a    program     static D:\Final\PIC_Module\Microchip\TCPIP Stack\TCP.c
                 __pa_272   0x004714    program     static D:\Final\PIC_Module\Microchip\TCPIP Stack\TCP.c
                 __pa_273   0x00471c    program     static D:\Final\PIC_Module\Microchip\TCPIP Stack\TCP.c
                 __pa_274   0x004726    program     static D:\Final\PIC_Module\Microchip\TCPIP Stack\TCP.c
                 __pa_275   0x004730    program     static D:\Final\PIC_Module\Microchip\TCPIP Stack\TCP.c
                  putUART   0x00473a    program     static D:\Final\PIC_Module\Miner\GetPutWork.c
           SPIRAMPutArray   0x00474c    program     extern D:\Final\PIC_Module\Miner\GetPutWork.c
           SPIRAMGetArray   0x00479a    program     extern D:\Final\PIC_Module\Miner\GetPutWork.c
               UsrPas2SPI   0x0047ea    program     static D:\Final\PIC_Module\Miner\GetPutWork.c
               SPI2UsrPas   0x004838    program     static D:\Final\PIC_Module\Miner\GetPutWork.c
                      M2S   0x0048a2    program     static D:\Final\PIC_Module\Miner\GetPutWork.c
                      S2M   0x00490c    program     static D:\Final\PIC_Module\Miner\GetPutWork.c
                 alpha_in   0x004978    program     static D:\Final\PIC_Module\Miner\GetPutWork.c
              Job_Restart   0x0049c2    program     extern D:\Final\PIC_Module\Miner\GetPutWork.c
              GPW_Restart   0x0049f4    program     extern D:\Final\PIC_Module\Miner\GetPutWork.c
                  GetWork   0x004a68    program     extern D:\Final\PIC_Module\Miner\GetPutWork.c
                 Dispatch   0x004e5c    program     extern D:\Final\PIC_Module\Miner\GetPutWork.c
                  PutWork   0x004f8c    program     extern D:\Final\PIC_Module\Miner\GetPutWork.c
           ___if_lbl00161   0x004fc4    program     static                          
              __tmplbl_14   0x004ffa    program     static                          
           ___if_lbl00162   0x005002    program     static                          
         ___else_lbl00164   0x005004    program     static                          
           ___if_lbl00163   0x00500e    program     static                          
           ___if_lbl00165   0x00500e    program     static                          
       ___case_0_lbl00168   0x00503a    program     static                          
           ___if_lbl00167   0x005042    program     static                          
           ___if_lbl00169   0x005050    program     static                          
           ___if_lbl00170   0x0050be    program     static                          
       ___case_1_lbl00173   0x00510c    program     static                          
              __tmplbl_15   0x0051ac    program     static                          
           ___if_lbl00171   0x0051c0    program     static                          
           ___if_lbl00172   0x0051c2    program     static                          
           ___if_lbl00174   0x0051ca    program     static                          
           ___if_lbl00175   0x0051ec    program     static                          
       ___case_2_lbl00183   0x005200    program     static                          
              __tmplbl_17   0x00521c    program     static                          
              __tmplbl_16   0x005222    program     static                          
         ___else_lbl00182   0x005236    program     static                          
          ___for_lbl00179   0x0052d2    program     static                          
          ___for_lbl00177   0x005320    program     static                          
          ___for_lbl00178   0x005326    program     static                          
           ___if_lbl00181   0x0053e4    program     static                          
           ___if_lbl00180   0x0053e4    program     static                          
       ___case_3_lbl00190   0x0053e6    program     static                          
         ___else_lbl00189   0x005416    program     static                          
           ___if_lbl00184   0x0054f2    program     static                          
         ___else_lbl00187   0x00552c    program     static                          
              __tmplbl_18   0x0055b0    program     static                          
           ___if_lbl00185   0x0055c4    program     static                          
           ___if_lbl00186   0x0055c4    program     static                          
           ___if_lbl00188   0x0055c4    program     static                          
       ___case_4_lbl00192   0x0055c6    program     static                          
           ___if_lbl00191   0x0055f2    program     static                          
   ___switchexit_lbl00166   0x005616    program     static                          
       ___return_lbl00160   0x005616    program     static                          
                     b64e   0x00562a    program     static D:\Final\PIC_Module\Miner\GetPutWork.c
                  SendGPW   0x005882    program     static D:\Final\PIC_Module\Miner\GetPutWork.c
                   __pa_0   0x005978    program     static D:\Final\PIC_Module\Miner\GetPutWork.c
                   __pa_1   0x0059d4    program     static D:\Final\PIC_Module\Miner\GetPutWork.c
                   __pa_2   0x0059da    program     static D:\Final\PIC_Module\Miner\GetPutWork.c
                   __pa_3   0x0059e2    program     static D:\Final\PIC_Module\Miner\GetPutWork.c
                   __pa_4   0x005a08    program     static D:\Final\PIC_Module\Miner\GetPutWork.c
                   __pa_5   0x005a28    program     static D:\Final\PIC_Module\Miner\GetPutWork.c
                   __pa_6   0x005a36    program     static D:\Final\PIC_Module\Miner\GetPutWork.c
                   __pa_7   0x005a5e    program     static D:\Final\PIC_Module\Miner\GetPutWork.c
                   __pa_8   0x005a6a    program     static D:\Final\PIC_Module\Miner\GetPutWork.c
                   __pa_9   0x005a74    program     static D:\Final\PIC_Module\Miner\GetPutWork.c
              __tmplbl_20   0x005a74    program     static                          
              __tmplbl_81   0x005a74    program     static                          
              __tmplbl_78   0x005a74    program     static                          
              __tmplbl_57   0x005a74    program     static                          
              __tmplbl_56   0x005a74    program     static                          
              __tmplbl_55   0x005a74    program     static                          
              __tmplbl_54   0x005a74    program     static                          
              __tmplbl_49   0x005a74    program     static                          
              __tmplbl_25   0x005a74    program     static                          
              __tmplbl_30   0x005a74    program     static                          
              __tmplbl_44   0x005a74    program     static                          
              __tmplbl_37   0x005a74    program     static                          
                  __pa_10   0x005a7c    program     static D:\Final\PIC_Module\Miner\GetPutWork.c
                  __pa_11   0x005a92    program     static D:\Final\PIC_Module\Miner\GetPutWork.c
                  __pa_12   0x005aa4    program     static D:\Final\PIC_Module\Miner\GetPutWork.c
                  __pa_13   0x005ab2    program     static D:\Final\PIC_Module\Miner\GetPutWork.c
                  __pa_14   0x005ace    program     static D:\Final\PIC_Module\Miner\GetPutWork.c
                  __pa_15   0x005ae6    program     static D:\Final\PIC_Module\Miner\GetPutWork.c
                  __pa_16   0x005af4    program     static D:\Final\PIC_Module\Miner\GetPutWork.c
                  __pa_17   0x005b06    program     static D:\Final\PIC_Module\Miner\GetPutWork.c
                  __pa_18   0x005b0e    program     static D:\Final\PIC_Module\Miner\GetPutWork.c
                  __pa_19   0x005b28    program     static D:\Final\PIC_Module\Miner\GetPutWork.c
                  __pa_20   0x005b40    program     static D:\Final\PIC_Module\Miner\GetPutWork.c
                  __pa_21   0x005b4c    program     static D:\Final\PIC_Module\Miner\GetPutWork.c
                  __pa_22   0x005b5c    program     static D:\Final\PIC_Module\Miner\GetPutWork.c
                  __pa_23   0x005b72    program     static D:\Final\PIC_Module\Miner\GetPutWork.c
                  __pa_24   0x005b76    program     static D:\Final\PIC_Module\Miner\GetPutWork.c
                  __pa_25   0x005b84    program     static D:\Final\PIC_Module\Miner\GetPutWork.c
                  __pa_26   0x005b92    program     static D:\Final\PIC_Module\Miner\GetPutWork.c
                  __pa_27   0x005ba0    program     static D:\Final\PIC_Module\Miner\GetPutWork.c
                  __pa_28   0x005bae    program     static D:\Final\PIC_Module\Miner\GetPutWork.c
                  __pa_29   0x005bc0    program     static D:\Final\PIC_Module\Miner\GetPutWork.c
                  __pa_30   0x005bd2    program     static D:\Final\PIC_Module\Miner\GetPutWork.c
                  __pa_31   0x005be2    program     static D:\Final\PIC_Module\Miner\GetPutWork.c
                  __pa_32   0x005bee    program     static D:\Final\PIC_Module\Miner\GetPutWork.c
                  __pa_33   0x005bfa    program     static D:\Final\PIC_Module\Miner\GetPutWork.c
                  __pa_34   0x005c06    program     static D:\Final\PIC_Module\Miner\GetPutWork.c
                  __pa_35   0x005c14    program     static D:\Final\PIC_Module\Miner\GetPutWork.c
                  __pa_36   0x005c22    program     static D:\Final\PIC_Module\Miner\GetPutWork.c
                  __pa_37   0x005c30    program     static D:\Final\PIC_Module\Miner\GetPutWork.c
                  __pa_38   0x005c3e    program     static D:\Final\PIC_Module\Miner\GetPutWork.c
                  __pa_39   0x005c4c    program     static D:\Final\PIC_Module\Miner\GetPutWork.c
                  __pa_40   0x005c5a    program     static D:\Final\PIC_Module\Miner\GetPutWork.c
                  __pa_41   0x005c68    program     static D:\Final\PIC_Module\Miner\GetPutWork.c
                  __pa_42   0x005c88    program     static D:\Final\PIC_Module\Miner\GetPutWork.c
                  __pa_43   0x005c92    program     static D:\Final\PIC_Module\Miner\GetPutWork.c
                  __pa_44   0x005c9c    program     static D:\Final\PIC_Module\Miner\GetPutWork.c
                  __pa_45   0x005cae    program     static D:\Final\PIC_Module\Miner\GetPutWork.c
                  __pa_46   0x005cbc    program     static D:\Final\PIC_Module\Miner\GetPutWork.c
                  __pa_47   0x005cc4    program     static D:\Final\PIC_Module\Miner\GetPutWork.c
                  __pa_48   0x005ccc    program     static D:\Final\PIC_Module\Miner\GetPutWork.c
                  __pa_49   0x005cd6    program     static D:\Final\PIC_Module\Miner\GetPutWork.c
                  __pa_50   0x005cdc    program     static D:\Final\PIC_Module\Miner\GetPutWork.c
                  __pa_51   0x005ce8    program     static D:\Final\PIC_Module\Miner\GetPutWork.c
                  __pa_52   0x005cf4    program     static D:\Final\PIC_Module\Miner\GetPutWork.c
                  __pa_53   0x005d02    program     static D:\Final\PIC_Module\Miner\GetPutWork.c
                  __pa_54   0x005d10    program     static D:\Final\PIC_Module\Miner\GetPutWork.c
                  __pa_55   0x005d16    program     static D:\Final\PIC_Module\Miner\GetPutWork.c
                  __pa_56   0x005d1e    program     static D:\Final\PIC_Module\Miner\GetPutWork.c
                  __pa_57   0x005d28    program     static D:\Final\PIC_Module\Miner\GetPutWork.c
                  __pa_58   0x005d30    program     static D:\Final\PIC_Module\Miner\GetPutWork.c
                  __pa_59   0x005d3c    program     static D:\Final\PIC_Module\Miner\GetPutWork.c
                IP2String   0x005d46    program     extern D:\Final\PIC_Module\Miner\Miner_WEB.c
                 HTTPInit   0x005dda    program     extern D:\Final\PIC_Module\Miner\Miner_WEB.c
               HTTPServer   0x005e04    program     extern D:\Final\PIC_Module\Miner\Miner_WEB.c
                    exoit   0x005e0c    program     static D:\Final\PIC_Module\Miner\Miner_WEB.c
              HTTPProcess   0x005e72    program     static D:\Final\PIC_Module\Miner\Miner_WEB.c
                  OutLong   0x0064fa    program     static D:\Final\PIC_Module\Miner\Miner_WEB.c
                   OutDot   0x006558    program     static D:\Final\PIC_Module\Miner\Miner_WEB.c
                  OutTime   0x0065d4    program     static D:\Final\PIC_Module\Miner\Miner_WEB.c
                  OutShit   0x00661e    program     static D:\Final\PIC_Module\Miner\Miner_WEB.c
                   DoStic   0x0066ce    program     static D:\Final\PIC_Module\Miner\Miner_WEB.c
                   __pa_0   0x006a92    program     static D:\Final\PIC_Module\Miner\Miner_WEB.c
                   __pa_1   0x006a9c    program     static D:\Final\PIC_Module\Miner\Miner_WEB.c
                   __pa_2   0x006aa4    program     static D:\Final\PIC_Module\Miner\Miner_WEB.c
                   __pa_3   0x006ac2    program     static D:\Final\PIC_Module\Miner\Miner_WEB.c
                   __pa_4   0x006ae8    program     static D:\Final\PIC_Module\Miner\Miner_WEB.c
                   __pa_5   0x006af4    program     static D:\Final\PIC_Module\Miner\Miner_WEB.c
                   __pa_6   0x006afa    program     static D:\Final\PIC_Module\Miner\Miner_WEB.c
                   __pa_7   0x006b1c    program     static D:\Final\PIC_Module\Miner\Miner_WEB.c
                   __pa_8   0x006b36    program     static D:\Final\PIC_Module\Miner\Miner_WEB.c
                   __pa_9   0x006b70    program     static D:\Final\PIC_Module\Miner\Miner_WEB.c
                  __pa_10   0x006b7a    program     static D:\Final\PIC_Module\Miner\Miner_WEB.c
                  __pa_11   0x006b82    program     static D:\Final\PIC_Module\Miner\Miner_WEB.c
                  __pa_12   0x006b8c    program     static D:\Final\PIC_Module\Miner\Miner_WEB.c
                  __pa_13   0x006ba8    program     static D:\Final\PIC_Module\Miner\Miner_WEB.c
               __tmplbl_1   0x006bbc    program     static                          
               __tmplbl_0   0x006bbc    program     static                          
                  __pa_14   0x006bbc    program     static D:\Final\PIC_Module\Miner\Miner_WEB.c
                  __pa_15   0x006bc6    program     static D:\Final\PIC_Module\Miner\Miner_WEB.c
                  __pa_16   0x006bf4    program     static D:\Final\PIC_Module\Miner\Miner_WEB.c
                  __pa_17   0x006c0e    program     static D:\Final\PIC_Module\Miner\Miner_WEB.c
                  __pa_18   0x006c14    program     static D:\Final\PIC_Module\Miner\Miner_WEB.c
                  __pa_19   0x006c1a    program     static D:\Final\PIC_Module\Miner\Miner_WEB.c
                  __pa_20   0x006c24    program     static D:\Final\PIC_Module\Miner\Miner_WEB.c
                  __pa_21   0x006c2c    program     static D:\Final\PIC_Module\Miner\Miner_WEB.c
                  __pa_22   0x006c36    program     static D:\Final\PIC_Module\Miner\Miner_WEB.c
                  __pa_23   0x006c3e    program     static D:\Final\PIC_Module\Miner\Miner_WEB.c
                  __pa_24   0x006c46    program     static D:\Final\PIC_Module\Miner\Miner_WEB.c
                  __pa_25   0x006c58    program     static D:\Final\PIC_Module\Miner\Miner_WEB.c
                  __pa_26   0x006c66    program     static D:\Final\PIC_Module\Miner\Miner_WEB.c
                  __pa_27   0x006c76    program     static D:\Final\PIC_Module\Miner\Miner_WEB.c
                  __pa_28   0x006c7e    program     static D:\Final\PIC_Module\Miner\Miner_WEB.c
                  __pa_29   0x006c88    program     static D:\Final\PIC_Module\Miner\Miner_WEB.c
                  __pa_30   0x006c98    program     static D:\Final\PIC_Module\Miner\Miner_WEB.c
                  __pa_31   0x006cae    program     static D:\Final\PIC_Module\Miner\Miner_WEB.c
                  __pa_32   0x006cb8    program     static D:\Final\PIC_Module\Miner\Miner_WEB.c
                  __pa_33   0x006cca    program     static D:\Final\PIC_Module\Miner\Miner_WEB.c
                  __pa_34   0x006cd8    program     static D:\Final\PIC_Module\Miner\Miner_WEB.c
                  __pa_35   0x006ce6    program     static D:\Final\PIC_Module\Miner\Miner_WEB.c
                  __pa_36   0x006cf4    program     static D:\Final\PIC_Module\Miner\Miner_WEB.c
                  __pa_37   0x006d02    program     static D:\Final\PIC_Module\Miner\Miner_WEB.c
                  __pa_38   0x006d10    program     static D:\Final\PIC_Module\Miner\Miner_WEB.c
                  __pa_39   0x006d1a    program     static D:\Final\PIC_Module\Miner\Miner_WEB.c
                  __pa_40   0x006d24    program     static D:\Final\PIC_Module\Miner\Miner_WEB.c
                  __pa_41   0x006d36    program     static D:\Final\PIC_Module\Miner\Miner_WEB.c
                  __pa_42   0x006d46    program     static D:\Final\PIC_Module\Miner\Miner_WEB.c
                  __pa_43   0x006d58    program     static D:\Final\PIC_Module\Miner\Miner_WEB.c
                  __pa_44   0x006d5c    program     static D:\Final\PIC_Module\Miner\Miner_WEB.c
                  __pa_45   0x006d64    program     static D:\Final\PIC_Module\Miner\Miner_WEB.c
                  __pa_46   0x006d6a    program     static D:\Final\PIC_Module\Miner\Miner_WEB.c
                  __pa_47   0x006d72    program     static D:\Final\PIC_Module\Miner\Miner_WEB.c
                  __pa_48   0x006d7e    program     static D:\Final\PIC_Module\Miner\Miner_WEB.c
                  __pa_49   0x006d86    program     static D:\Final\PIC_Module\Miner\Miner_WEB.c
                  __pa_50   0x006d8c    program     static D:\Final\PIC_Module\Miner\Miner_WEB.c
                  __pa_51   0x006d9a    program     static D:\Final\PIC_Module\Miner\Miner_WEB.c
                  __pa_52   0x006daa    program     static D:\Final\PIC_Module\Miner\Miner_WEB.c
                  __pa_53   0x006dbc    program     static D:\Final\PIC_Module\Miner\Miner_WEB.c
                  __pa_54   0x006dce    program     static D:\Final\PIC_Module\Miner\Miner_WEB.c
                  __pa_55   0x006de0    program     static D:\Final\PIC_Module\Miner\Miner_WEB.c
                  __pa_56   0x006dec    program     static D:\Final\PIC_Module\Miner\Miner_WEB.c
                  __pa_57   0x006df8    program     static D:\Final\PIC_Module\Miner\Miner_WEB.c
                  __pa_58   0x006e02    program     static D:\Final\PIC_Module\Miner\Miner_WEB.c
                  __pa_59   0x006e0c    program     static D:\Final\PIC_Module\Miner\Miner_WEB.c
                  __pa_60   0x006e16    program     static D:\Final\PIC_Module\Miner\Miner_WEB.c
                  __pa_61   0x006e20    program     static D:\Final\PIC_Module\Miner\Miner_WEB.c
                  __pa_62   0x006e2a    program     static D:\Final\PIC_Module\Miner\Miner_WEB.c
                  __pa_63   0x006e36    program     static D:\Final\PIC_Module\Miner\Miner_WEB.c
                  __pa_64   0x006e3e    program     static D:\Final\PIC_Module\Miner\Miner_WEB.c
                  __pa_65   0x006e44    program     static D:\Final\PIC_Module\Miner\Miner_WEB.c
                  __pa_66   0x006e4a    program     static D:\Final\PIC_Module\Miner\Miner_WEB.c
                  __pa_67   0x006e52    program     static D:\Final\PIC_Module\Miner\Miner_WEB.c
                  __pa_68   0x006e5c    program     static D:\Final\PIC_Module\Miner\Miner_WEB.c
                  __pa_69   0x006e64    program     static D:\Final\PIC_Module\Miner\Miner_WEB.c
                  __pa_70   0x006e68    program     static D:\Final\PIC_Module\Miner\Miner_WEB.c
                  __pa_71   0x006e76    program     static D:\Final\PIC_Module\Miner\Miner_WEB.c
                  __pa_72   0x006e82    program     static D:\Final\PIC_Module\Miner\Miner_WEB.c
                     ROTR   0x006e8a    program     static D:\Final\PIC_Module\Miner\MySha256.c
                   EXPAND   0x006f08    program     static D:\Final\PIC_Module\Miner\MySha256.c
                    ROUND   0x00716e    program     static D:\Final\PIC_Module\Miner\MySha256.c
           sha256_Chunk_1   0x007386    program     extern D:\Final\PIC_Module\Miner\MySha256.c
                   __pa_0   0x0076fe    program     static D:\Final\PIC_Module\Miner\MySha256.c
                   __pa_1   0x00771e    program     static D:\Final\PIC_Module\Miner\MySha256.c
                   __pa_2   0x007726    program     static D:\Final\PIC_Module\Miner\MySha256.c
                   __pa_3   0x00772e    program     static D:\Final\PIC_Module\Miner\MySha256.c
                   __pa_4   0x00773a    program     static D:\Final\PIC_Module\Miner\MySha256.c
                   __pa_5   0x007750    program     static D:\Final\PIC_Module\Miner\MySha256.c
                   __pa_6   0x00775e    program     static D:\Final\PIC_Module\Miner\MySha256.c
                   __pa_7   0x00776e    program     static D:\Final\PIC_Module\Miner\MySha256.c
                   __pa_8   0x007782    program     static D:\Final\PIC_Module\Miner\MySha256.c
                   __pa_9   0x007788    program     static D:\Final\PIC_Module\Miner\MySha256.c
                  __pa_10   0x0077a8    program     static D:\Final\PIC_Module\Miner\MySha256.c
                  __pa_11   0x0077c8    program     static D:\Final\PIC_Module\Miner\MySha256.c
                  __pa_12   0x0077e8    program     static D:\Final\PIC_Module\Miner\MySha256.c
                  __pa_13   0x007808    program     static D:\Final\PIC_Module\Miner\MySha256.c
                  __pa_14   0x007828    program     static D:\Final\PIC_Module\Miner\MySha256.c
                  __pa_15   0x007848    program     static D:\Final\PIC_Module\Miner\MySha256.c
                  __pa_16   0x007868    program     static D:\Final\PIC_Module\Miner\MySha256.c
                  __pa_17   0x007888    program     static D:\Final\PIC_Module\Miner\MySha256.c
                  __pa_18   0x0078b0    program     static D:\Final\PIC_Module\Miner\MySha256.c
               __tmplbl_0   0x0078c4    program     static                          
                  __pa_19   0x0078c4    program     static D:\Final\PIC_Module\Miner\MySha256.c
                  __pa_20   0x0078d6    program     static D:\Final\PIC_Module\Miner\MySha256.c
                  __pa_21   0x0078dc    program     static D:\Final\PIC_Module\Miner\MySha256.c
                  __pa_22   0x0078f0    program     static D:\Final\PIC_Module\Miner\MySha256.c
                  __pa_23   0x0078f6    program     static D:\Final\PIC_Module\Miner\MySha256.c
                  __pa_24   0x0078fc    program     static D:\Final\PIC_Module\Miner\MySha256.c
                  __pa_25   0x007902    program     static D:\Final\PIC_Module\Miner\MySha256.c
                  __pa_26   0x00790e    program     static D:\Final\PIC_Module\Miner\MySha256.c
                  __pa_27   0x00791a    program     static D:\Final\PIC_Module\Miner\MySha256.c
                  __pa_28   0x007924    program     static D:\Final\PIC_Module\Miner\MySha256.c
                  __pa_29   0x007932    program     static D:\Final\PIC_Module\Miner\MySha256.c
                  __pa_30   0x007940    program     static D:\Final\PIC_Module\Miner\MySha256.c
                  __pa_31   0x00794e    program     static D:\Final\PIC_Module\Miner\MySha256.c
                  __pa_32   0x007956    program     static D:\Final\PIC_Module\Miner\MySha256.c
                  __pa_33   0x00795e    program     static D:\Final\PIC_Module\Miner\MySha256.c
                  __pa_34   0x007964    program     static D:\Final\PIC_Module\Miner\MySha256.c
                  __pa_35   0x00796a    program     static D:\Final\PIC_Module\Miner\MySha256.c
                  __pa_36   0x007984    program     static D:\Final\PIC_Module\Miner\MySha256.c
                  __pa_37   0x007988    program     static D:\Final\PIC_Module\Miner\MySha256.c
                  __pa_38   0x007992    program     static D:\Final\PIC_Module\Miner\MySha256.c
                  __pa_39   0x007998    program     static D:\Final\PIC_Module\Miner\MySha256.c
                  __pa_40   0x0079aa    program     static D:\Final\PIC_Module\Miner\MySha256.c
                  __pa_41   0x0079b4    program     static D:\Final\PIC_Module\Miner\MySha256.c
                  __pa_42   0x0079bc    program     static D:\Final\PIC_Module\Miner\MySha256.c
                  __pa_43   0x0079c4    program     static D:\Final\PIC_Module\Miner\MySha256.c
                  __pa_44   0x0079cc    program     static D:\Final\PIC_Module\Miner\MySha256.c
                  __pa_45   0x0079d8    program     static D:\Final\PIC_Module\Miner\MySha256.c
                  __pa_46   0x0079e6    program     static D:\Final\PIC_Module\Miner\MySha256.c
                  __pa_47   0x0079f8    program     static D:\Final\PIC_Module\Miner\MySha256.c
                  __pa_48   0x007a02    program     static D:\Final\PIC_Module\Miner\MySha256.c
                  __pa_49   0x007a10    program     static D:\Final\PIC_Module\Miner\MySha256.c
                  __pa_50   0x007a1e    program     static D:\Final\PIC_Module\Miner\MySha256.c
                  __pa_51   0x007a2c    program     static D:\Final\PIC_Module\Miner\MySha256.c
                  __pa_52   0x007a34    program     static D:\Final\PIC_Module\Miner\MySha256.c
                  __pa_53   0x007a3c    program     static D:\Final\PIC_Module\Miner\MySha256.c
                  __pa_54   0x007a44    program     static D:\Final\PIC_Module\Miner\MySha256.c
                  __pa_55   0x007a56    program     static D:\Final\PIC_Module\Miner\MySha256.c
                  __pa_56   0x007a68    program     static D:\Final\PIC_Module\Miner\MySha256.c
                  __pa_57   0x007a7a    program     static D:\Final\PIC_Module\Miner\MySha256.c
                  __pa_58   0x007a8c    program     static D:\Final\PIC_Module\Miner\MySha256.c
                  __pa_59   0x007a9e    program     static D:\Final\PIC_Module\Miner\MySha256.c
                  __pa_60   0x007aaa    program     static D:\Final\PIC_Module\Miner\MySha256.c
                  __pa_61   0x007ab6    program     static D:\Final\PIC_Module\Miner\MySha256.c
                  __pa_62   0x007ac2    program     static D:\Final\PIC_Module\Miner\MySha256.c
                  __pa_63   0x007ace    program     static D:\Final\PIC_Module\Miner\MySha256.c
                  __pa_64   0x007ae2    program     static D:\Final\PIC_Module\Miner\MySha256.c
                  __pa_65   0x007af4    program     static D:\Final\PIC_Module\Miner\MySha256.c
                  __pa_66   0x007b06    program     static D:\Final\PIC_Module\Miner\MySha256.c
                  __pa_67   0x007b18    program     static D:\Final\PIC_Module\Miner\MySha256.c
                  MACInit   0x007b2a    program     extern D:\Final\PIC_Module\Microchip\TCPIP Stack\ETH97J60.c
        ___while_lbl00001   0x007b3c    program     static                          
        ___while_lbl00002   0x007b42    program     static                          
       ___return_lbl00000   0x007c28    program     static                          
              MACIsLinked   0x007c32    program     extern D:\Final\PIC_Module\Microchip\TCPIP Stack\ETH97J60.c
             MACIsTxReady   0x007c44    program     extern D:\Final\PIC_Module\Microchip\TCPIP Stack\ETH97J60.c
             MACDiscardRx   0x007c76    program     extern D:\Final\PIC_Module\Microchip\TCPIP Stack\ETH97J60.c
         MACGetFreeRxSize   0x007cc6    program     extern D:\Final\PIC_Module\Microchip\TCPIP Stack\ETH97J60.c
             MACGetHeader   0x007d8c    program     extern D:\Final\PIC_Module\Microchip\TCPIP Stack\ETH97J60.c
           ___if_lbl00019   0x007da2    program     static                          
           ___if_lbl00020   0x007dae    program     static                          
               __tmplbl_8   0x007e14    program     static                          
               __tmplbl_7   0x007e16    program     static                          
               __tmplbl_6   0x007e24    program     static                          
               __tmplbl_5   0x007e3a    program     static                          
               __tmplbl_4   0x007e4e    program     static                          
               __tmplbl_3   0x007e64    program     static                          
               __tmplbl_2   0x007e78    program     static                          
           ___if_lbl00026   0x007e7a    program     static                          
              __tmplbl_10   0x007ed2    program     static                          
              __tmplbl_11   0x007ed8    program     static                          
               __tmplbl_9   0x007ee0    program     static                          
           ___if_lbl00029   0x007ef2    program     static                          
       ___return_lbl00018   0x007efa    program     static                          
             MACPutHeader   0x007f12    program     extern D:\Final\PIC_Module\Microchip\TCPIP Stack\ETH97J60.c
                 MACFlush   0x007f70    program     extern D:\Final\PIC_Module\Microchip\TCPIP Stack\ETH97J60.c
        MACSetReadPtrInRx   0x007f98    program     extern D:\Final\PIC_Module\Microchip\TCPIP Stack\ETH97J60.c
           MACSetWritePtr   0x007fb8    program     extern D:\Final\PIC_Module\Microchip\TCPIP Stack\ETH97J60.c
            MACSetReadPtr   0x007fd2    program     extern D:\Final\PIC_Module\Microchip\TCPIP Stack\ETH97J60.c
        MACCalcRxChecksum   0x007ff0    program     extern D:\Final\PIC_Module\Microchip\TCPIP Stack\ETH97J60.c
     CalcIPBufferChecksum   0x00803c    program     extern D:\Final\PIC_Module\Microchip\TCPIP Stack\ETH97J60.c
          MACMemCopyAsync   0x0081b0    program     extern D:\Final\PIC_Module\Microchip\TCPIP Stack\ETH97J60.c
         MACIsMemCopyDone   0x0082f8    program     extern D:\Final\PIC_Module\Microchip\TCPIP Stack\ETH97J60.c
                   MACGet   0x008304    program     extern D:\Final\PIC_Module\Microchip\TCPIP Stack\ETH97J60.c
              MACGetArray   0x008308    program     extern D:\Final\PIC_Module\Microchip\TCPIP Stack\ETH97J60.c
                   MACPut   0x008368    program     extern D:\Final\PIC_Module\Microchip\TCPIP Stack\ETH97J60.c
       ___return_lbl00078   0x00837a    program     static                          
              MACPutArray   0x008382    program     extern D:\Final\PIC_Module\Microchip\TCPIP Stack\ETH97J60.c
        ___while_lbl00080   0x00838a    program     static                          
        ___while_lbl00081   0x0083be    program     static                          
       ___return_lbl00079   0x0083be    program     static                          
           MACPutROMArray   0x0083c6    program     extern D:\Final\PIC_Module\Microchip\TCPIP Stack\ETH97J60.c
        ___while_lbl00083   0x0083ce    program     static                          
        ___while_lbl00084   0x008414    program     static                          
       ___return_lbl00082   0x008414    program     static                          
               ReadPHYReg   0x00841c    program     extern D:\Final\PIC_Module\Microchip\TCPIP Stack\ETH97J60.c
        ___while_lbl00086   0x008438    program     static                          
        ___while_lbl00087   0x00843e    program     static                          
       ___return_lbl00085   0x008462    program     static                          
              WritePHYReg   0x008476    program     extern D:\Final\PIC_Module\Microchip\TCPIP Stack\ETH97J60.c
        ___while_lbl00089   0x0084aa    program     static                          
       ___return_lbl00088   0x0084b0    program     static                          
        ___while_lbl00090   0x0084b0    program     static                          
             MACPowerDown   0x0084ba    program     extern D:\Final\PIC_Module\Microchip\TCPIP Stack\ETH97J60.c
               MACPowerUp   0x0084cc    program     extern D:\Final\PIC_Module\Microchip\TCPIP Stack\ETH97J60.c
                   __pa_0   0x0084da    program     static D:\Final\PIC_Module\Microchip\TCPIP Stack\ETH97J60.c
              __tmplbl_22   0x0084f2    program     static                          
                   __pa_1   0x0084f2    program     static D:\Final\PIC_Module\Microchip\TCPIP Stack\ETH97J60.c
                   __pa_2   0x0084f6    program     static D:\Final\PIC_Module\Microchip\TCPIP Stack\ETH97J60.c
                   __pa_3   0x008500    program     static D:\Final\PIC_Module\Microchip\TCPIP Stack\ETH97J60.c
                   __pa_4   0x00850a    program     static D:\Final\PIC_Module\Microchip\TCPIP Stack\ETH97J60.c
                   __pa_5   0x00852e    program     static D:\Final\PIC_Module\Microchip\TCPIP Stack\ETH97J60.c
                   __pa_6   0x00853a    program     static D:\Final\PIC_Module\Microchip\TCPIP Stack\ETH97J60.c
                   __pa_7   0x008548    program     static D:\Final\PIC_Module\Microchip\TCPIP Stack\ETH97J60.c
                   __pa_8   0x008558    program     static D:\Final\PIC_Module\Microchip\TCPIP Stack\ETH97J60.c
                   __pa_9   0x008566    program     static D:\Final\PIC_Module\Microchip\TCPIP Stack\ETH97J60.c
                  __pa_10   0x008578    program     static D:\Final\PIC_Module\Microchip\TCPIP Stack\ETH97J60.c
                  __pa_11   0x00858a    program     static D:\Final\PIC_Module\Microchip\TCPIP Stack\ETH97J60.c
                  __pa_12   0x008596    program     static D:\Final\PIC_Module\Microchip\TCPIP Stack\ETH97J60.c
                  __pa_13   0x0085a2    program     static D:\Final\PIC_Module\Microchip\TCPIP Stack\ETH97J60.c
                  __pa_14   0x0085b0    program     static D:\Final\PIC_Module\Microchip\TCPIP Stack\ETH97J60.c
                  __pa_15   0x0085be    program     static D:\Final\PIC_Module\Microchip\TCPIP Stack\ETH97J60.c
                  __pa_16   0x0085cc    program     static D:\Final\PIC_Module\Microchip\TCPIP Stack\ETH97J60.c
                  __pa_17   0x0085da    program     static D:\Final\PIC_Module\Microchip\TCPIP Stack\ETH97J60.c
                  __pa_18   0x0085e2    program     static D:\Final\PIC_Module\Microchip\TCPIP Stack\ETH97J60.c
                  __pa_19   0x0085ec    program     static D:\Final\PIC_Module\Microchip\TCPIP Stack\ETH97J60.c
                  __pa_20   0x0085f6    program     static D:\Final\PIC_Module\Microchip\TCPIP Stack\ETH97J60.c
                  __pa_21   0x008612    program     static D:\Final\PIC_Module\Microchip\TCPIP Stack\ETH97J60.c
                  __pa_22   0x00861a    program     static D:\Final\PIC_Module\Microchip\TCPIP Stack\ETH97J60.c
                  __pa_23   0x008626    program     static D:\Final\PIC_Module\Microchip\TCPIP Stack\ETH97J60.c
                  __pa_24   0x008630    program     static D:\Final\PIC_Module\Microchip\TCPIP Stack\ETH97J60.c
                  __pa_25   0x008638    program     static D:\Final\PIC_Module\Microchip\TCPIP Stack\ETH97J60.c
                  __pa_26   0x008644    program     static D:\Final\PIC_Module\Microchip\TCPIP Stack\ETH97J60.c
                  __pa_27   0x00864c    program     static D:\Final\PIC_Module\Microchip\TCPIP Stack\ETH97J60.c
                  favicon   0x008654    program     static D:\Final\PIC_Module\Miner\Miner_WEB.c
                   hdrErr   0x00871a    program     static D:\Final\PIC_Module\Miner\Miner_WEB.c
                    hdrOK   0x008786    program     static D:\Final\PIC_Module\Miner\Miner_WEB.c
                   resNDD   0x0087d4    program     static D:\Final\PIC_Module\Miner\Miner_WEB.c
                   resNDC   0x008852    program     static D:\Final\PIC_Module\Miner\Miner_WEB.c
                   hdrICO   0x008869    program     static D:\Final\PIC_Module\Miner\Miner_WEB.c
                     Page   0x0088cc    program     static D:\Final\PIC_Module\Miner\Miner_WEB.c
                    sComa   0x008fee    program     static D:\Final\PIC_Module\Miner\Miner_WEB.c
                     saci   0x009016    program     static D:\Final\PIC_Module\Miner\Miner_WEB.c
                     ampa   0x009026    program     static D:\Final\PIC_Module\Miner\Miner_WEB.c
                  s_cpool   0x009028    program     static D:\Final\PIC_Module\Miner\Miner_WEB.c
                    s_swm   0x00906c    program     static D:\Final\PIC_Module\Miner\Miner_WEB.c
                    s_clk   0x00907e    program     static D:\Final\PIC_Module\Miner\Miner_WEB.c
                   s_High   0x009093    program     static D:\Final\PIC_Module\Miner\Miner_WEB.c
                   s_Lowx   0x0090a0    program     static D:\Final\PIC_Module\Miner\Miner_WEB.c
                   s_Exst   0x0090ad    program     static D:\Final\PIC_Module\Miner\Miner_WEB.c
                   s_gotn   0x0090ba    program     static D:\Final\PIC_Module\Miner\Miner_WEB.c
                    s_mhs   0x0090c4    program     static D:\Final\PIC_Module\Miner\Miner_WEB.c
                      smt   0x0090cd    program     static D:\Final\PIC_Module\Miner\Miner_WEB.c
                   s_subm   0x009113    program     static D:\Final\PIC_Module\Miner\Miner_WEB.c
                    s_uts   0x00911f    program     static D:\Final\PIC_Module\Miner\Miner_WEB.c
                   s_effi   0x00912a    program     static D:\Final\PIC_Module\Miner\Miner_WEB.c
                  s_CkLow   0x009137    program     static D:\Final\PIC_Module\Miner\Miner_WEB.c
                 s_CkHigh   0x00913b    program     static D:\Final\PIC_Module\Miner\Miner_WEB.c
                  s_PoolA   0x009140    program     static D:\Final\PIC_Module\Miner\Miner_WEB.c
                  s_PoolB   0x009145    program     static D:\Final\PIC_Module\Miner\Miner_WEB.c
                  UDPInit   0x00914a    program     extern D:\Final\PIC_Module\Microchip\TCPIP Stack\UDP.c
                  UDPTask   0x00916c    program     extern D:\Final\PIC_Module\Microchip\TCPIP Stack\UDP.c
                  UDPOpen   0x009172    program     extern D:\Final\PIC_Module\Microchip\TCPIP Stack\UDP.c
                 UDPClose   0x009252    program     extern D:\Final\PIC_Module\Microchip\TCPIP Stack\UDP.c
           UDPSetTxBuffer   0x009278    program     extern D:\Final\PIC_Module\Microchip\TCPIP Stack\UDP.c
           UDPSetRxBuffer   0x0092c2    program     extern D:\Final\PIC_Module\Microchip\TCPIP Stack\UDP.c
            UDPIsPutReady   0x0092e2    program     extern D:\Final\PIC_Module\Microchip\TCPIP Stack\UDP.c
                   UDPPut   0x009338    program     extern D:\Final\PIC_Module\Microchip\TCPIP Stack\UDP.c
              UDPPutArray   0x009380    program     extern D:\Final\PIC_Module\Microchip\TCPIP Stack\UDP.c
           UDPPutROMArray   0x0093ae    program     extern D:\Final\PIC_Module\Microchip\TCPIP Stack\UDP.c
             UDPPutString   0x009420    program     extern D:\Final\PIC_Module\Microchip\TCPIP Stack\UDP.c
                 UDPFlush   0x009476    program     extern D:\Final\PIC_Module\Microchip\TCPIP Stack\UDP.c
            UDPIsGetReady   0x00952e    program     extern D:\Final\PIC_Module\Microchip\TCPIP Stack\UDP.c
                   UDPGet   0x009562    program     extern D:\Final\PIC_Module\Microchip\TCPIP Stack\UDP.c
              UDPGetArray   0x009596    program     extern D:\Final\PIC_Module\Microchip\TCPIP Stack\UDP.c
               UDPDiscard   0x009606    program     extern D:\Final\PIC_Module\Microchip\TCPIP Stack\UDP.c
               UDPProcess   0x009620    program     extern D:\Final\PIC_Module\Microchip\TCPIP Stack\UDP.c
       FindMatchingSocket   0x0097ba    program     static D:\Final\PIC_Module\Microchip\TCPIP Stack\UDP.c
                   __pa_0   0x0098f0    program     static D:\Final\PIC_Module\Microchip\TCPIP Stack\UDP.c
                   __pa_1   0x009918    program     static D:\Final\PIC_Module\Microchip\TCPIP Stack\UDP.c
                   __pa_2   0x009920    program     static D:\Final\PIC_Module\Microchip\TCPIP Stack\UDP.c
                   __pa_3   0x009936    program     static D:\Final\PIC_Module\Microchip\TCPIP Stack\UDP.c
                   __pa_4   0x00993c    program     static D:\Final\PIC_Module\Microchip\TCPIP Stack\UDP.c
                   __pa_5   0x009942    program     static D:\Final\PIC_Module\Microchip\TCPIP Stack\UDP.c
                   __pa_6   0x009950    program     static D:\Final\PIC_Module\Microchip\TCPIP Stack\UDP.c
                   __pa_7   0x00996c    program     static D:\Final\PIC_Module\Microchip\TCPIP Stack\UDP.c
                   __pa_8   0x00997a    program     static D:\Final\PIC_Module\Microchip\TCPIP Stack\UDP.c
                   __pa_9   0x009982    program     static D:\Final\PIC_Module\Microchip\TCPIP Stack\UDP.c
                  __pa_10   0x00998c    program     static D:\Final\PIC_Module\Microchip\TCPIP Stack\UDP.c
                  __pa_11   0x0099a4    program     static D:\Final\PIC_Module\Microchip\TCPIP Stack\UDP.c
                  __pa_12   0x0099bc    program     static D:\Final\PIC_Module\Microchip\TCPIP Stack\UDP.c
                  __pa_13   0x0099c8    program     static D:\Final\PIC_Module\Microchip\TCPIP Stack\UDP.c
                  __pa_14   0x0099de    program     static D:\Final\PIC_Module\Microchip\TCPIP Stack\UDP.c
                  __pa_15   0x0099ea    program     static D:\Final\PIC_Module\Microchip\TCPIP Stack\UDP.c
                  __pa_16   0x0099f4    program     static D:\Final\PIC_Module\Microchip\TCPIP Stack\UDP.c
                  __pa_17   0x009a02    program     static D:\Final\PIC_Module\Microchip\TCPIP Stack\UDP.c
                  __pa_18   0x009a14    program     static D:\Final\PIC_Module\Microchip\TCPIP Stack\UDP.c
                  __pa_19   0x009a26    program     static D:\Final\PIC_Module\Microchip\TCPIP Stack\UDP.c
                  __pa_20   0x009a32    program     static D:\Final\PIC_Module\Microchip\TCPIP Stack\UDP.c
                  __pa_21   0x009a3c    program     static D:\Final\PIC_Module\Microchip\TCPIP Stack\UDP.c
                  __pa_22   0x009a4c    program     static D:\Final\PIC_Module\Microchip\TCPIP Stack\UDP.c
                  __pa_23   0x009a5a    program     static D:\Final\PIC_Module\Microchip\TCPIP Stack\UDP.c
                  __pa_24   0x009a68    program     static D:\Final\PIC_Module\Microchip\TCPIP Stack\UDP.c
                  __pa_25   0x009a76    program     static D:\Final\PIC_Module\Microchip\TCPIP Stack\UDP.c
                  __pa_26   0x009a84    program     static D:\Final\PIC_Module\Microchip\TCPIP Stack\UDP.c
                  __pa_27   0x009a92    program     static D:\Final\PIC_Module\Microchip\TCPIP Stack\UDP.c
                  __pa_28   0x009aa0    program     static D:\Final\PIC_Module\Microchip\TCPIP Stack\UDP.c
                  __pa_29   0x009aaa    program     static D:\Final\PIC_Module\Microchip\TCPIP Stack\UDP.c
                  __pa_30   0x009ab4    program     static D:\Final\PIC_Module\Microchip\TCPIP Stack\UDP.c
                  __pa_31   0x009aca    program     static D:\Final\PIC_Module\Microchip\TCPIP Stack\UDP.c
                  __pa_32   0x009ad8    program     static D:\Final\PIC_Module\Microchip\TCPIP Stack\UDP.c
                  __pa_33   0x009ae6    program     static D:\Final\PIC_Module\Microchip\TCPIP Stack\UDP.c
                  __pa_34   0x009af0    program     static D:\Final\PIC_Module\Microchip\TCPIP Stack\UDP.c
                  __pa_35   0x009afa    program     static D:\Final\PIC_Module\Microchip\TCPIP Stack\UDP.c
                  __pa_36   0x009b06    program     static D:\Final\PIC_Module\Microchip\TCPIP Stack\UDP.c
                  __pa_37   0x009b14    program     static D:\Final\PIC_Module\Microchip\TCPIP Stack\UDP.c
                  __pa_38   0x009b22    program     static D:\Final\PIC_Module\Microchip\TCPIP Stack\UDP.c
                  __pa_39   0x009b30    program     static D:\Final\PIC_Module\Microchip\TCPIP Stack\UDP.c
                  __pa_40   0x009b3e    program     static D:\Final\PIC_Module\Microchip\TCPIP Stack\UDP.c
                  __pa_41   0x009b48    program     static D:\Final\PIC_Module\Microchip\TCPIP Stack\UDP.c
                  __pa_42   0x009b52    program     static D:\Final\PIC_Module\Microchip\TCPIP Stack\UDP.c
      GenerateRandomDWORD   0x009b5c    program     extern D:\Final\PIC_Module\Microchip\TCPIP Stack\Helpers.c
               __tmplbl_9   0x009bc4    program     static                          
        ___while_lbl00001   0x009bdc    program     static                          
        ___while_lbl00003   0x009be4    program     static                          
        ___while_lbl00004   0x009be8    program     static                          
               __tmplbl_0   0x009c48    program     static                          
              __tmplbl_10   0x009c64    program     static                          
              __tmplbl_11   0x009ca4    program     static                          
              __tmplbl_12   0x009d08    program     static                          
           ___if_lbl00005   0x009d48    program     static                          
           ___if_lbl00006   0x009d66    program     static                          
           ___if_lbl00007   0x009dfc    program     static                          
           ___if_lbl00008   0x009e02    program     static                          
        ___while_lbl00002   0x009e04    program     static                          
       ___return_lbl00000   0x009e4c    program     static                          
        StringToIPAddress   0x009e60    program     extern D:\Final\PIC_Module\Microchip\TCPIP Stack\Helpers.c
     ROMStringToIPAddress   0x009ea8    program     extern D:\Final\PIC_Module\Microchip\TCPIP Stack\Helpers.c
                    uitoa   0x009f4a    program     extern D:\Final\PIC_Module\Microchip\TCPIP Stack\Helpers.c
           stricmppgm2ram   0x00a046    program     extern D:\Final\PIC_Module\Microchip\TCPIP Stack\Helpers.c
                    swaps   0x00a10c    program     extern D:\Final\PIC_Module\Microchip\TCPIP Stack\Helpers.c
                    swapl   0x00a152    program     extern D:\Final\PIC_Module\Microchip\TCPIP Stack\Helpers.c
           CalcIPChecksum   0x00a1a0    program     extern D:\Final\PIC_Module\Microchip\TCPIP Stack\Helpers.c
                   __pa_0   0x00a2ba    program     static D:\Final\PIC_Module\Microchip\TCPIP Stack\Helpers.c
                   __pa_1   0x00a2dc    program     static D:\Final\PIC_Module\Microchip\TCPIP Stack\Helpers.c
                   __pa_2   0x00a2ee    program     static D:\Final\PIC_Module\Microchip\TCPIP Stack\Helpers.c
                   __pa_3   0x00a2f8    program     static D:\Final\PIC_Module\Microchip\TCPIP Stack\Helpers.c
                   __pa_4   0x00a300    program     static D:\Final\PIC_Module\Microchip\TCPIP Stack\Helpers.c
                   __pa_5   0x00a318    program     static D:\Final\PIC_Module\Microchip\TCPIP Stack\Helpers.c
                   __pa_6   0x00a32a    program     static D:\Final\PIC_Module\Microchip\TCPIP Stack\Helpers.c
                   __pa_7   0x00a33c    program     static D:\Final\PIC_Module\Microchip\TCPIP Stack\Helpers.c
                   __pa_8   0x00a346    program     static D:\Final\PIC_Module\Microchip\TCPIP Stack\Helpers.c
                   __pa_9   0x00a356    program     static D:\Final\PIC_Module\Microchip\TCPIP Stack\Helpers.c
                  __pa_10   0x00a364    program     static D:\Final\PIC_Module\Microchip\TCPIP Stack\Helpers.c
                  __pa_11   0x00a372    program     static D:\Final\PIC_Module\Microchip\TCPIP Stack\Helpers.c
                  __pa_12   0x00a384    program     static D:\Final\PIC_Module\Microchip\TCPIP Stack\Helpers.c
            DNSBeginUsage   0x00a394    program     extern D:\Final\PIC_Module\Microchip\TCPIP Stack\DNS.c
              DNSEndUsage   0x00a39e    program     extern D:\Final\PIC_Module\Microchip\TCPIP Stack\DNS.c
               DNSResolve   0x00a3b8    program     extern D:\Final\PIC_Module\Microchip\TCPIP Stack\DNS.c
            DNSResolveROM   0x00a3ec    program     extern D:\Final\PIC_Module\Microchip\TCPIP Stack\DNS.c
            DNSIsResolved   0x00a432    program     extern D:\Final\PIC_Module\Microchip\TCPIP Stack\DNS.c
             DNSPutString   0x00a776    program     static D:\Final\PIC_Module\Microchip\TCPIP Stack\DNS.c
          DNSPutROMString   0x00a82a    program     static D:\Final\PIC_Module\Microchip\TCPIP Stack\DNS.c
             DNSGetString   0x00a90c    program     static D:\Final\PIC_Module\Microchip\TCPIP Stack\DNS.c
                   __pa_0   0x00a952    program     static D:\Final\PIC_Module\Microchip\TCPIP Stack\DNS.c
                   __pa_1   0x00a958    program     static D:\Final\PIC_Module\Microchip\TCPIP Stack\DNS.c
                   __pa_2   0x00a98a    program     static D:\Final\PIC_Module\Microchip\TCPIP Stack\DNS.c
                   __pa_3   0x00a990    program     static D:\Final\PIC_Module\Microchip\TCPIP Stack\DNS.c
                   __pa_4   0x00a99c    program     static D:\Final\PIC_Module\Microchip\TCPIP Stack\DNS.c
                   __pa_5   0x00a9a8    program     static D:\Final\PIC_Module\Microchip\TCPIP Stack\DNS.c
                   __pa_6   0x00a9b8    program     static D:\Final\PIC_Module\Microchip\TCPIP Stack\DNS.c
                   __pa_7   0x00a9c8    program     static D:\Final\PIC_Module\Microchip\TCPIP Stack\DNS.c
                   __pa_8   0x00a9d4    program     static D:\Final\PIC_Module\Microchip\TCPIP Stack\DNS.c
                   __pa_9   0x00a9e4    program     static D:\Final\PIC_Module\Microchip\TCPIP Stack\DNS.c
                  __pa_10   0x00a9ee    program     static D:\Final\PIC_Module\Microchip\TCPIP Stack\DNS.c
                  __pa_11   0x00a9f6    program     static D:\Final\PIC_Module\Microchip\TCPIP Stack\DNS.c
                  __pa_12   0x00aa0e    program     static D:\Final\PIC_Module\Microchip\TCPIP Stack\DNS.c
                  __pa_13   0x00aa1c    program     static D:\Final\PIC_Module\Microchip\TCPIP Stack\DNS.c
                  __pa_14   0x00aa30    program     static D:\Final\PIC_Module\Microchip\TCPIP Stack\DNS.c
                  __pa_15   0x00aa42    program     static D:\Final\PIC_Module\Microchip\TCPIP Stack\DNS.c
                  __pa_16   0x00aa4a    program     static D:\Final\PIC_Module\Microchip\TCPIP Stack\DNS.c
                  __pa_17   0x00aa54    program     static D:\Final\PIC_Module\Microchip\TCPIP Stack\DNS.c
                  __pa_18   0x00aa5e    program     static D:\Final\PIC_Module\Microchip\TCPIP Stack\DNS.c
                  __pa_19   0x00aa6e    program     static D:\Final\PIC_Module\Microchip\TCPIP Stack\DNS.c
                  __pa_20   0x00aa7a    program     static D:\Final\PIC_Module\Microchip\TCPIP Stack\DNS.c
                  __pa_21   0x00aa88    program     static D:\Final\PIC_Module\Microchip\TCPIP Stack\DNS.c
                  __pa_22   0x00aa92    program     static D:\Final\PIC_Module\Microchip\TCPIP Stack\DNS.c
                  __pa_23   0x00aaca    program     static D:\Final\PIC_Module\Microchip\TCPIP Stack\DNS.c
                  __pa_24   0x00aad0    program     static D:\Final\PIC_Module\Microchip\TCPIP Stack\DNS.c
                  __pa_25   0x00aad8    program     static D:\Final\PIC_Module\Microchip\TCPIP Stack\DNS.c
                  __pa_26   0x00aade    program     static D:\Final\PIC_Module\Microchip\TCPIP Stack\DNS.c
                  __pa_27   0x00aae6    program     static D:\Final\PIC_Module\Microchip\TCPIP Stack\DNS.c
                  __pa_28   0x00aaee    program     static D:\Final\PIC_Module\Microchip\TCPIP Stack\DNS.c
                  __pa_29   0x00aaf8    program     static D:\Final\PIC_Module\Microchip\TCPIP Stack\DNS.c
                  __pa_30   0x00aafe    program     static D:\Final\PIC_Module\Microchip\TCPIP Stack\DNS.c
                   LowISR   0x00ab08    program     extern D:\Final\PIC_Module\Miner\Miner_Main.c
                  HighISR   0x00abc2    program     extern D:\Final\PIC_Module\Miner\Miner_Main.c
                   OutMAC   0x00abd0    program     static D:\Final\PIC_Module\Miner\Miner_Main.c
                   MsWait   0x00ac20    program     static D:\Final\PIC_Module\Miner\Miner_Main.c
                  OutASIC   0x00acda    program     extern D:\Final\PIC_Module\Miner\Miner_Main.c
                 GetNonce   0x00ad2e    program     extern D:\Final\PIC_Module\Miner\Miner_Main.c
          ___for_lbl00021   0x00ad3c    program     static                          
          ___for_lbl00019   0x00ad74    program     static                          
       ___return_lbl00018   0x00ad78    program     static                          
          ___for_lbl00020   0x00ad78    program     static                          
                  hex2bin   0x00ad8c    program     extern D:\Final\PIC_Module\Miner\Miner_Main.c
                  bin2hex   0x00ae14    program     extern D:\Final\PIC_Module\Miner\Miner_Main.c
               LoadConfig   0x00ae6c    program     static D:\Final\PIC_Module\Miner\Miner_Main.c
                 ConfInit   0x00ae8e    program     static D:\Final\PIC_Module\Miner\Miner_Main.c
               SaveConfig   0x00aeaa    program     extern D:\Final\PIC_Module\Miner\Miner_Main.c
             RawErasePage   0x00afb6    program     static D:\Final\PIC_Module\Miner\Miner_Main.c
        ___while_lbl00214   0x00afe6    program     static                          
        ___while_lbl00216   0x00afea    program     static                          
        ___while_lbl00215   0x00afea    program     static                          
        ___while_lbl00217   0x00afee    program     static                          
       ___return_lbl00213   0x00aff2    program     static                          
       RawWriteFlashBlock   0x00affa    program     static D:\Final\PIC_Module\Miner\Miner_Main.c
          ___for_lbl00221   0x00b00a    program     static                          
          ___for_lbl00219   0x00b032    program     static                          
          ___for_lbl00220   0x00b038    program     static                          
        ___while_lbl00222   0x00b05c    program     static                          
        ___while_lbl00223   0x00b060    program     static                          
       ___return_lbl00218   0x00b066    program     static                          
                   __pa_0   0x00b06e    program     static D:\Final\PIC_Module\Miner\Miner_Main.c
                   __pa_1   0x00b07e    program     static D:\Final\PIC_Module\Miner\Miner_Main.c
                   __pa_2   0x00b08e    program     static D:\Final\PIC_Module\Miner\Miner_Main.c
                   __pa_3   0x00b098    program     static D:\Final\PIC_Module\Miner\Miner_Main.c
                   __pa_4   0x00b0a0    program     static D:\Final\PIC_Module\Miner\Miner_Main.c
                   __pa_5   0x00b0b8    program     static D:\Final\PIC_Module\Miner\Miner_Main.c
                   __pa_6   0x00b0c8    program     static D:\Final\PIC_Module\Miner\Miner_Main.c
                   __pa_7   0x00b0d6    program     static D:\Final\PIC_Module\Miner\Miner_Main.c
                   __pa_8   0x00b0e4    program     static D:\Final\PIC_Module\Miner\Miner_Main.c
                   __pa_9   0x00b0f2    program     static D:\Final\PIC_Module\Miner\Miner_Main.c
                  __pa_10   0x00b100    program     static D:\Final\PIC_Module\Miner\Miner_Main.c
                  __pa_11   0x00b110    program     static D:\Final\PIC_Module\Miner\Miner_Main.c
                  __pa_12   0x00b11e    program     static D:\Final\PIC_Module\Miner\Miner_Main.c
                   ARPPut   0x00b12a    program     static D:\Final\PIC_Module\Microchip\TCPIP Stack\ARP.c
                  ARPInit   0x00b1e2    program     extern D:\Final\PIC_Module\Microchip\TCPIP Stack\ARP.c
               ARPProcess   0x00b1fa    program     extern D:\Final\PIC_Module\Microchip\TCPIP Stack\ARP.c
               ARPResolve   0x00b3a8    program     extern D:\Final\PIC_Module\Microchip\TCPIP Stack\ARP.c
            ARPIsResolved   0x00b4ac    program     extern D:\Final\PIC_Module\Microchip\TCPIP Stack\ARP.c
            SwapARPPacket   0x00b552    program     static D:\Final\PIC_Module\Microchip\TCPIP Stack\ARP.c
                   __pa_0   0x00b57a    program     static D:\Final\PIC_Module\Microchip\TCPIP Stack\ARP.c
                   __pa_1   0x00b588    program     static D:\Final\PIC_Module\Microchip\TCPIP Stack\ARP.c
                   __pa_2   0x00b59c    program     static D:\Final\PIC_Module\Microchip\TCPIP Stack\ARP.c
                   __pa_3   0x00b5a6    program     static D:\Final\PIC_Module\Microchip\TCPIP Stack\ARP.c
                   __pa_4   0x00b5ae    program     static D:\Final\PIC_Module\Microchip\TCPIP Stack\ARP.c
                   __pa_5   0x00b5ba    program     static D:\Final\PIC_Module\Microchip\TCPIP Stack\ARP.c
                   __pa_6   0x00b5c8    program     static D:\Final\PIC_Module\Microchip\TCPIP Stack\ARP.c
                   __pa_7   0x00b5d2    program     static D:\Final\PIC_Module\Microchip\TCPIP Stack\ARP.c
                   __pa_8   0x00b5ee    program     static D:\Final\PIC_Module\Microchip\TCPIP Stack\ARP.c
                 FLO3232U   0x00b5f6    program     extern D:\3.43\pic18-lt\cxx-framework\src\traditional\math\cast32FP.asm
                 FLO3232S   0x00b5fa    program     extern D:\3.43\pic18-lt\cxx-framework\src\traditional\math\cast32FP.asm
                jI2F32Beg   0x00b612    program     static D:\3.43\pic18-lt\cxx-framework\src\traditional\math\cast32FP.asm
                    FPD32   0x00b62c    program     extern D:\3.43\pic18-lt\cxx-framework\src\traditional\math\divFP.asm
                 jANotInf   0x00b64a    program     static D:\3.43\pic18-lt\cxx-framework\src\traditional\math\divFP.asm
              jSignedZero   0x00b654    program     static D:\3.43\pic18-lt\cxx-framework\src\traditional\math\divFP.asm
                jANotZero   0x00b65e    program     static D:\3.43\pic18-lt\cxx-framework\src\traditional\math\divFP.asm
                    jLoop   0x00b686    program     static D:\3.43\pic18-lt\cxx-framework\src\traditional\math\divFP.asm
                jNoAdjust   0x00b6aa    program     static D:\3.43\pic18-lt\cxx-framework\src\traditional\math\divFP.asm
                    jNext   0x00b6ac    program     static D:\3.43\pic18-lt\cxx-framework\src\traditional\math\divFP.asm
                    FPM32   0x00b6d2    program     extern D:\3.43\pic18-lt\cxx-framework\src\traditional\math\mulFP.asm
                 jANotInf   0x00b6f0    program     static D:\3.43\pic18-lt\cxx-framework\src\traditional\math\mulFP.asm
              jBothFinite   0x00b6fe    program     static D:\3.43\pic18-lt\cxx-framework\src\traditional\math\mulFP.asm
                jHaveZero   0x00b706    program     static D:\3.43\pic18-lt\cxx-framework\src\traditional\math\mulFP.asm
             jBothNotZero   0x00b70a    program     static D:\3.43\pic18-lt\cxx-framework\src\traditional\math\mulFP.asm
                 FXM1616U   0x00b7ac    program     extern D:\3.43\pic18-lt\cxx-framework\src\traditional\math\fxm1616u.asm
                 FXM2424U   0x00b7e8    program     extern D:\3.43\pic18-lt\cxx-framework\src\traditional\math\fxm2424u.asm
                  INT3216   0x00b87a    program     extern D:\3.43\pic18-lt\cxx-framework\src\traditional\math\castFP16.asm
                     jMax   0x00b88a    program     static D:\3.43\pic18-lt\cxx-framework\src\traditional\math\castFP16.asm
                  jMaxPos   0x00b88e    program     static D:\3.43\pic18-lt\cxx-framework\src\traditional\math\castFP16.asm
                  jMaxNeg   0x00b898    program     static D:\3.43\pic18-lt\cxx-framework\src\traditional\math\castFP16.asm
                    jZero   0x00b8a0    program     static D:\3.43\pic18-lt\cxx-framework\src\traditional\math\castFP16.asm
                  jNotInf   0x00b8a6    program     static D:\3.43\pic18-lt\cxx-framework\src\traditional\math\castFP16.asm
                    jLoop   0x00b8b6    program     static D:\3.43\pic18-lt\cxx-framework\src\traditional\math\castFP16.asm
                jLoopExit   0x00b8c6    program     static D:\3.43\pic18-lt\cxx-framework\src\traditional\math\castFP16.asm
                    jExit   0x00b8d6    program     static D:\3.43\pic18-lt\cxx-framework\src\traditional\math\castFP16.asm
                  INT3232   0x00b8d8    program     extern D:\3.43\pic18-lt\cxx-framework\src\traditional\math\castFP32.asm
                     jMax   0x00b8e8    program     static D:\3.43\pic18-lt\cxx-framework\src\traditional\math\castFP32.asm
                  jMaxPos   0x00b8ec    program     static D:\3.43\pic18-lt\cxx-framework\src\traditional\math\castFP32.asm
                   jWr123   0x00b8f2    program     static D:\3.43\pic18-lt\cxx-framework\src\traditional\math\castFP32.asm
                  jMaxNeg   0x00b8fa    program     static D:\3.43\pic18-lt\cxx-framework\src\traditional\math\castFP32.asm
                    jZero   0x00b900    program     static D:\3.43\pic18-lt\cxx-framework\src\traditional\math\castFP32.asm
                  jWrZ123   0x00b902    program     static D:\3.43\pic18-lt\cxx-framework\src\traditional\math\castFP32.asm
                  jNotInf   0x00b906    program     static D:\3.43\pic18-lt\cxx-framework\src\traditional\math\castFP32.asm
                    jLoop   0x00b918    program     static D:\3.43\pic18-lt\cxx-framework\src\traditional\math\castFP32.asm
                jLoopExit   0x00b92c    program     static D:\3.43\pic18-lt\cxx-framework\src\traditional\math\castFP32.asm
                    jExit   0x00b944    program     static D:\3.43\pic18-lt\cxx-framework\src\traditional\math\castFP32.asm
            __FpReturnNaN   0x00b946    program     extern D:\3.43\pic18-lt\cxx-framework\src\traditional\math\packFP.asm
                 __FpExit   0x00b952    program     extern D:\3.43\pic18-lt\cxx-framework\src\traditional\math\packFP.asm
        __FpReturnSignInf   0x00b954    program     extern D:\3.43\pic18-lt\cxx-framework\src\traditional\math\packFP.asm
         __FpReturnNegInf   0x00b958    program     extern D:\3.43\pic18-lt\cxx-framework\src\traditional\math\packFP.asm
         __FpReturnPosInf   0x00b95e    program     extern D:\3.43\pic18-lt\cxx-framework\src\traditional\math\packFP.asm
           jReturnPosInf0   0x00b962    program     static D:\3.43\pic18-lt\cxx-framework\src\traditional\math\packFP.asm
               jZero1and2   0x00b966    program     static D:\3.43\pic18-lt\cxx-framework\src\traditional\math\packFP.asm
       __FpReturnSignZero   0x00b96c    program     extern D:\3.43\pic18-lt\cxx-framework\src\traditional\math\packFP.asm
        __FpReturnNegZero   0x00b970    program     extern D:\3.43\pic18-lt\cxx-framework\src\traditional\math\packFP.asm
        __FpReturnPosZero   0x00b978    program     extern D:\3.43\pic18-lt\cxx-framework\src\traditional\math\packFP.asm
                 __FpPack   0x00b97e    program     extern D:\3.43\pic18-lt\cxx-framework\src\traditional\math\packFP.asm
                  jPkLoop   0x00b98c    program     static D:\3.43\pic18-lt\cxx-framework\src\traditional\math\packFP.asm
             jPkShiftDone   0x00b9a8    program     static D:\3.43\pic18-lt\cxx-framework\src\traditional\math\packFP.asm
               jPkRoundIt   0x00b9be    program     static D:\3.43\pic18-lt\cxx-framework\src\traditional\math\packFP.asm
             jPkRoundDone   0x00b9d6    program     static D:\3.43\pic18-lt\cxx-framework\src\traditional\math\packFP.asm
              __FpReturnW   0x00b9d6    program     extern D:\3.43\pic18-lt\cxx-framework\src\traditional\math\packFP.asm
              __FpUnPackA   0x00b9f6    program     extern D:\3.43\pic18-lt\cxx-framework\src\traditional\math\UnpackFP.asm
                  jUnpkA1   0x00ba00    program     static D:\3.43\pic18-lt\cxx-framework\src\traditional\math\UnpackFP.asm
                 jUnpkANZ   0x00ba0e    program     static D:\3.43\pic18-lt\cxx-framework\src\traditional\math\UnpackFP.asm
                  jUnpkA2   0x00ba18    program     static D:\3.43\pic18-lt\cxx-framework\src\traditional\math\UnpackFP.asm
                 jUnpkNaN   0x00ba22    program     static D:\3.43\pic18-lt\cxx-framework\src\traditional\math\UnpackFP.asm
              __FpUnPackB   0x00ba26    program     extern D:\3.43\pic18-lt\cxx-framework\src\traditional\math\UnpackFP.asm
                  jUnpkB1   0x00ba30    program     static D:\3.43\pic18-lt\cxx-framework\src\traditional\math\UnpackFP.asm
                 jUnpkBNZ   0x00ba3e    program     static D:\3.43\pic18-lt\cxx-framework\src\traditional\math\UnpackFP.asm
                  jUnpkB2   0x00ba48    program     static D:\3.43\pic18-lt\cxx-framework\src\traditional\math\UnpackFP.asm
              IPGetHeader   0x00ba52    program     extern D:\Final\PIC_Module\Microchip\TCPIP Stack\IP.c
              IPPutHeader   0x00bb86    program     extern D:\Final\PIC_Module\Microchip\TCPIP Stack\IP.c
            IPSetRxBuffer   0x00bc80    program     extern D:\Final\PIC_Module\Microchip\TCPIP Stack\IP.c
             SwapIPHeader   0x00bcae    program     static D:\Final\PIC_Module\Microchip\TCPIP Stack\IP.c
                   __pa_0   0x00bccc    program     static D:\Final\PIC_Module\Microchip\TCPIP Stack\IP.c
                   __pa_1   0x00bcee    program     static D:\Final\PIC_Module\Microchip\TCPIP Stack\IP.c
                   __pa_2   0x00bcf4    program     static D:\Final\PIC_Module\Microchip\TCPIP Stack\IP.c
                   __pa_3   0x00bd0a    program     static D:\Final\PIC_Module\Microchip\TCPIP Stack\IP.c
                   __pa_4   0x00bd14    program     static D:\Final\PIC_Module\Microchip\TCPIP Stack\IP.c
                   __pa_5   0x00bd1e    program     static D:\Final\PIC_Module\Microchip\TCPIP Stack\IP.c
                   __pa_6   0x00bd26    program     static D:\Final\PIC_Module\Microchip\TCPIP Stack\IP.c
                   __pa_7   0x00bd36    program     static D:\Final\PIC_Module\Microchip\TCPIP Stack\IP.c
                   __pa_8   0x00bd44    program     static D:\Final\PIC_Module\Microchip\TCPIP Stack\IP.c
                   __pa_9   0x00bd52    program     static D:\Final\PIC_Module\Microchip\TCPIP Stack\IP.c
                   memcmp   0x00bd62    program     extern D:\3.43\pic18-lt\cxx-framework\src\traditional\stdclib\memcmp.asm
                    jLoop   0x00bd82    program     static D:\3.43\pic18-lt\cxx-framework\src\traditional\stdclib\memcmp.asm
              _4jContinue   0x00bd8e    program     static D:\3.43\pic18-lt\cxx-framework\src\traditional\stdclib\memcmp.asm
                   _5jEnd   0x00bd98    program     static D:\3.43\pic18-lt\cxx-framework\src\traditional\stdclib\memcmp.asm
                     jEnd   0x00bd9e    program     static D:\3.43\pic18-lt\cxx-framework\src\traditional\stdclib\memcmp.asm
            memcmppgm2ram   0x00bdb4    program     extern D:\3.43\pic18-lt\cxx-framework\src\traditional\stdclib\mcmpp2r.asm
                    jLoop   0x00bdd2    program     static D:\3.43\pic18-lt\cxx-framework\src\traditional\stdclib\mcmpp2r.asm
              _3jContinue   0x00bdde    program     static D:\3.43\pic18-lt\cxx-framework\src\traditional\stdclib\mcmpp2r.asm
                   _4jEnd   0x00bde8    program     static D:\3.43\pic18-lt\cxx-framework\src\traditional\stdclib\mcmpp2r.asm
                     jEnd   0x00bdf0    program     static D:\3.43\pic18-lt\cxx-framework\src\traditional\stdclib\mcmpp2r.asm
                   memcpy   0x00bdf2    program     extern D:\3.43\pic18-lt\cxx-framework\src\traditional\stdclib\memcpy.asm
                    jLoop   0x00be1a    program     static D:\3.43\pic18-lt\cxx-framework\src\traditional\stdclib\memcpy.asm
              _4jContinue   0x00be26    program     static D:\3.43\pic18-lt\cxx-framework\src\traditional\stdclib\memcpy.asm
                   _5jEnd   0x00be30    program     static D:\3.43\pic18-lt\cxx-framework\src\traditional\stdclib\memcpy.asm
                     jEnd   0x00be36    program     static D:\3.43\pic18-lt\cxx-framework\src\traditional\stdclib\memcpy.asm
            memcpypgm2ram   0x00be48    program     extern D:\3.43\pic18-lt\cxx-framework\src\traditional\stdclib\mcpyp2r.asm
                    jLoop   0x00be6e    program     static D:\3.43\pic18-lt\cxx-framework\src\traditional\stdclib\mcpyp2r.asm
              _3jContinue   0x00be7a    program     static D:\3.43\pic18-lt\cxx-framework\src\traditional\stdclib\mcpyp2r.asm
                   _4jEnd   0x00be84    program     static D:\3.43\pic18-lt\cxx-framework\src\traditional\stdclib\mcpyp2r.asm
                     jEnd   0x00be8c    program     static D:\3.43\pic18-lt\cxx-framework\src\traditional\stdclib\mcpyp2r.asm
                   memset   0x00be8e    program     extern D:\3.43\pic18-lt\cxx-framework\src\traditional\stdclib\memset.asm
                    jLoop   0x00bea2    program     static D:\3.43\pic18-lt\cxx-framework\src\traditional\stdclib\memset.asm
              _2jContinue   0x00beae    program     static D:\3.43\pic18-lt\cxx-framework\src\traditional\stdclib\memset.asm
                   _3jEnd   0x00beb8    program     static D:\3.43\pic18-lt\cxx-framework\src\traditional\stdclib\memset.asm
                     jEnd   0x00bec0    program     static D:\3.43\pic18-lt\cxx-framework\src\traditional\stdclib\memset.asm
                   strcat   0x00bec2    program     extern D:\3.43\pic18-lt\cxx-framework\src\traditional\stdclib\strcat.asm
                jNullLoop   0x00beea    program     static D:\3.43\pic18-lt\cxx-framework\src\traditional\stdclib\strcat.asm
                    jLoop   0x00bef0    program     static D:\3.43\pic18-lt\cxx-framework\src\traditional\stdclib\strcat.asm
            strcatpgm2ram   0x00bf0a    program     extern D:\3.43\pic18-lt\cxx-framework\src\traditional\stdclib\scatp2r.asm
                jNullLoop   0x00bf30    program     static D:\3.43\pic18-lt\cxx-framework\src\traditional\stdclib\scatp2r.asm
                    jLoop   0x00bf36    program     static D:\3.43\pic18-lt\cxx-framework\src\traditional\stdclib\scatp2r.asm
                     jEnd   0x00bf40    program     static D:\3.43\pic18-lt\cxx-framework\src\traditional\stdclib\scatp2r.asm
                   strcpy   0x00bf42    program     extern D:\3.43\pic18-lt\cxx-framework\src\traditional\stdclib\strcpy.asm
                    jLoop   0x00bf6a    program     static D:\3.43\pic18-lt\cxx-framework\src\traditional\stdclib\strcpy.asm
            strcpypgm2ram   0x00bf84    program     extern D:\3.43\pic18-lt\cxx-framework\src\traditional\stdclib\scpyp2r.asm
                    jLoop   0x00bfaa    program     static D:\3.43\pic18-lt\cxx-framework\src\traditional\stdclib\scpyp2r.asm
                     jEnd   0x00bfb4    program     static D:\3.43\pic18-lt\cxx-framework\src\traditional\stdclib\scpyp2r.asm
                   strlen   0x00bfb6    program     extern D:\3.43\pic18-lt\cxx-framework\src\traditional\stdclib\strlen.asm
                    jLoop   0x00bfc6    program     static D:\3.43\pic18-lt\cxx-framework\src\traditional\stdclib\strlen.asm
                     jEnd   0x00bfd0    program     static D:\3.43\pic18-lt\cxx-framework\src\traditional\stdclib\strlen.asm
                strlenpgm   0x00bfd2    program     extern D:\3.43\pic18-lt\cxx-framework\src\traditional\stdclib\slenpgm.asm
                    jLoop   0x00bff0    program     static D:\3.43\pic18-lt\cxx-framework\src\traditional\stdclib\slenpgm.asm
                   _2jEnd   0x00c006    program     static D:\3.43\pic18-lt\cxx-framework\src\traditional\stdclib\slenpgm.asm
                     jEnd   0x00c008    program     static D:\3.43\pic18-lt\cxx-framework\src\traditional\stdclib\slenpgm.asm
             strstrrampgm   0x00c01c    program     extern D:\3.43\pic18-lt\cxx-framework\src\traditional\stdclib\sstrrp.asm
               jOuterLoop   0x00c028    program     static D:\3.43\pic18-lt\cxx-framework\src\traditional\stdclib\sstrrp.asm
               jInnerLoop   0x00c042    program     static D:\3.43\pic18-lt\cxx-framework\src\traditional\stdclib\sstrrp.asm
                 jNoMatch   0x00c052    program     static D:\3.43\pic18-lt\cxx-framework\src\traditional\stdclib\sstrrp.asm
                    jNull   0x00c05c    program     static D:\3.43\pic18-lt\cxx-framework\src\traditional\stdclib\sstrrp.asm
                jStrMatch   0x00c060    program     static D:\3.43\pic18-lt\cxx-framework\src\traditional\stdclib\sstrrp.asm
                     atoi   0x00c062    program     extern D:\3.43\pic18-lt\cxx-framework\src\traditional\stdclib\atoi.asm
                  jSkipWS   0x00c090    program     static D:\3.43\pic18-lt\cxx-framework\src\traditional\stdclib\atoi.asm
                 jSkipWS1   0x00c0a2    program     static D:\3.43\pic18-lt\cxx-framework\src\traditional\stdclib\atoi.asm
                 jTstSign   0x00c0a6    program     static D:\3.43\pic18-lt\cxx-framework\src\traditional\stdclib\atoi.asm
                jTstSign1   0x00c0b2    program     static D:\3.43\pic18-lt\cxx-framework\src\traditional\stdclib\atoi.asm
                jTstSign2   0x00c0b8    program     static D:\3.43\pic18-lt\cxx-framework\src\traditional\stdclib\atoi.asm
                    jLoop   0x00c0ba    program     static D:\3.43\pic18-lt\cxx-framework\src\traditional\stdclib\atoi.asm
                jTstSign3   0x00c0ba    program     static D:\3.43\pic18-lt\cxx-framework\src\traditional\stdclib\atoi.asm
                 jEndLoop   0x00c108    program     static D:\3.43\pic18-lt\cxx-framework\src\traditional\stdclib\atoi.asm
                     jEnd   0x00c120    program     static D:\3.43\pic18-lt\cxx-framework\src\traditional\stdclib\atoi.asm
                    srand   0x00c14c    program     extern D:\3.43\pic18-lt\cxx-framework\src\traditional\stdclib\rand.asm
                     rand   0x00c15a    program     extern D:\3.43\pic18-lt\cxx-framework\src\traditional\stdclib\rand.asm
                    ultoa   0x00c188    program     extern D:\3.43\pic18-lt\cxx-framework\src\traditional\stdclib\ultoa.asm
                    jDo10   0x00c214    program     static D:\3.43\pic18-lt\cxx-framework\src\traditional\stdclib\ultoa.asm
                     jDo9   0x00c218    program     static D:\3.43\pic18-lt\cxx-framework\src\traditional\stdclib\ultoa.asm
                     jDo8   0x00c21c    program     static D:\3.43\pic18-lt\cxx-framework\src\traditional\stdclib\ultoa.asm
                     jDo7   0x00c220    program     static D:\3.43\pic18-lt\cxx-framework\src\traditional\stdclib\ultoa.asm
                     jDo6   0x00c224    program     static D:\3.43\pic18-lt\cxx-framework\src\traditional\stdclib\ultoa.asm
                     jDo5   0x00c228    program     static D:\3.43\pic18-lt\cxx-framework\src\traditional\stdclib\ultoa.asm
                     jDo4   0x00c22c    program     static D:\3.43\pic18-lt\cxx-framework\src\traditional\stdclib\ultoa.asm
                     jDo3   0x00c230    program     static D:\3.43\pic18-lt\cxx-framework\src\traditional\stdclib\ultoa.asm
                     jDo2   0x00c234    program     static D:\3.43\pic18-lt\cxx-framework\src\traditional\stdclib\ultoa.asm
                     jDo1   0x00c238    program     static D:\3.43\pic18-lt\cxx-framework\src\traditional\stdclib\ultoa.asm
                 TstUpper   0x00c26c    program     static D:\3.43\pic18-lt\cxx-framework\src\traditional\stdclib\ultoa.asm
                 TstLower   0x00c272    program     static D:\3.43\pic18-lt\cxx-framework\src\traditional\stdclib\ultoa.asm
                jTstLowZ1   0x00c27c    program     static D:\3.43\pic18-lt\cxx-framework\src\traditional\stdclib\ultoa.asm
                ProcUpper   0x00c27e    program     static D:\3.43\pic18-lt\cxx-framework\src\traditional\stdclib\ultoa.asm
                ProcLower   0x00c288    program     static D:\3.43\pic18-lt\cxx-framework\src\traditional\stdclib\ultoa.asm
                   ltoBCD   0x00c292    program     extern D:\3.43\pic18-lt\cxx-framework\src\traditional\stdclib\ltobcd.asm
                    jLoop   0x00c2ae    program     static D:\3.43\pic18-lt\cxx-framework\src\traditional\stdclib\ltobcd.asm
                     jEnd   0x00c2ec    program     static D:\3.43\pic18-lt\cxx-framework\src\traditional\stdclib\ltobcd.asm
                  OneByte   0x00c2f0    program     static D:\3.43\pic18-lt\cxx-framework\src\traditional\stdclib\ltobcd.asm
              __string_14   0x00c302    program     static D:\Final\PIC_Module\Miner\GetPutWork.c
              __string_13   0x00c307    program     static D:\Final\PIC_Module\Miner\GetPutWork.c
              __string_12   0x00c30e    program     static D:\Final\PIC_Module\Miner\GetPutWork.c
              __string_11   0x00c310    program     static D:\Final\PIC_Module\Miner\GetPutWork.c
              __string_10   0x00c312    program     static D:\Final\PIC_Module\Miner\GetPutWork.c
              __string_44   0x00c317    program     static D:\Final\PIC_Module\Miner\Miner_WEB.c
              __string_27   0x00c349    program     static D:\Final\PIC_Module\Miner\Miner_WEB.c
              __string_26   0x00c351    program     static D:\Final\PIC_Module\Miner\Miner_WEB.c
              __string_25   0x00c35a    program     static D:\Final\PIC_Module\Miner\Miner_WEB.c
              __string_24   0x00c362    program     static D:\Final\PIC_Module\Miner\Miner_WEB.c
              __string_23   0x00c36a    program     static D:\Final\PIC_Module\Miner\Miner_WEB.c
              __string_22   0x00c372    program     static D:\Final\PIC_Module\Miner\Miner_WEB.c
              __string_21   0x00c376    program     static D:\Final\PIC_Module\Miner\Miner_WEB.c
              __string_19   0x00c37b    program     static D:\Final\PIC_Module\Miner\Miner_WEB.c
              __string_18   0x00c388    program     static D:\Final\PIC_Module\Miner\Miner_WEB.c
              __string_17   0x00c395    program     static D:\Final\PIC_Module\Miner\Miner_WEB.c
              __string_16   0x00c3a2    program     static D:\Final\PIC_Module\Miner\Miner_WEB.c
              __string_15   0x00c3af    program     static D:\Final\PIC_Module\Miner\Miner_WEB.c
              __string_14   0x00c3b5    program     static D:\Final\PIC_Module\Miner\Miner_WEB.c
              __string_13   0x00c3bb    program     static D:\Final\PIC_Module\Miner\Miner_WEB.c
              __string_12   0x00c3c1    program     static D:\Final\PIC_Module\Miner\Miner_WEB.c
              __string_11   0x00c3c7    program     static D:\Final\PIC_Module\Miner\Miner_WEB.c
              __string_10   0x00c3cd    program     static D:\Final\PIC_Module\Miner\Miner_WEB.c
               __string_9   0x00c3d3    program     static D:\Final\PIC_Module\Miner\Miner_WEB.c
               __string_8   0x00c3d9    program     static D:\Final\PIC_Module\Miner\Miner_WEB.c
               __string_7   0x00c3df    program     static D:\Final\PIC_Module\Miner\Miner_WEB.c
               __string_6   0x00c3e5    program     static D:\Final\PIC_Module\Miner\Miner_WEB.c
              __string_29   0x00c3eb    program     static D:\Final\PIC_Module\Miner\Miner_Main.c
              __string_28   0x00c3fb    program     static D:\Final\PIC_Module\Miner\Miner_Main.c
              __string_27   0x00c406    program     static D:\Final\PIC_Module\Miner\Miner_Main.c
              __string_26   0x00c411    program     static D:\Final\PIC_Module\Miner\Miner_Main.c
              __string_25   0x00c41c    program     static D:\Final\PIC_Module\Miner\Miner_Main.c
              __string_24   0x00c427    program     static D:\Final\PIC_Module\Miner\Miner_Main.c
              __string_23   0x00c432    program     static D:\Final\PIC_Module\Miner\Miner_Main.c
              __string_22   0x00c43d    program     static D:\Final\PIC_Module\Miner\Miner_Main.c
              __string_21   0x00c448    program     static D:\Final\PIC_Module\Miner\Miner_Main.c
              __string_20   0x00c462    program     static D:\Final\PIC_Module\Miner\Miner_Main.c
              __string_19   0x00c476    program     static D:\Final\PIC_Module\Miner\Miner_Main.c
              __string_18   0x00c47d    program     static D:\Final\PIC_Module\Miner\Miner_Main.c
              __string_17   0x00c491    program     static D:\Final\PIC_Module\Miner\Miner_Main.c
              __string_16   0x00c498    program     static D:\Final\PIC_Module\Miner\Miner_Main.c
              __string_15   0x00c49e    program     static D:\Final\PIC_Module\Miner\Miner_Main.c
              __string_14   0x00c4a7    program     static D:\Final\PIC_Module\Miner\Miner_Main.c
              __string_13   0x00c4bc    program     static D:\Final\PIC_Module\Miner\Miner_Main.c
              __string_12   0x00c4de    program     static D:\Final\PIC_Module\Miner\Miner_Main.c
              __string_11   0x00c4f0    program     static D:\Final\PIC_Module\Miner\Miner_Main.c
              __string_10   0x00c500    program     static D:\Final\PIC_Module\Miner\Miner_Main.c
                    rPadd   0x00c508    program     static D:\Final\PIC_Module\Miner\GetPutWork.c
                   hPost1   0x00c569    program     static D:\Final\PIC_Module\Miner\GetPutWork.c
                   hPost2   0x00c590    program     static D:\Final\PIC_Module\Miner\GetPutWork.c
                   hPost3   0x00c60b    program     static D:\Final\PIC_Module\Miner\GetPutWork.c
                   hgwork   0x00c62e    program     static D:\Final\PIC_Module\Miner\GetPutWork.c
                   putpre   0x00c65c    program     static D:\Final\PIC_Module\Miner\GetPutWork.c
                   putpst   0x00c680    program     static D:\Final\PIC_Module\Miner\GetPutWork.c
                   rnHost   0x00c68f    program     static D:\Final\PIC_Module\Miner\GetPutWork.c
                     w305   0x00c698    program     static D:\Final\PIC_Module\Miner\GetPutWork.c
                      w45   0x00c69c    program     static D:\Final\PIC_Module\Miner\GetPutWork.c
                     cb64   0x00c69f    program     static D:\Final\PIC_Module\Miner\GetPutWork.c
                StackInit   0x00c6e0    program     extern D:\Final\PIC_Module\Microchip\TCPIP Stack\StackTsk.c
                StackTask   0x00c6f4    program     extern D:\Final\PIC_Module\Microchip\TCPIP Stack\StackTsk.c
        StackApplications   0x00c86e    program     extern D:\Final\PIC_Module\Microchip\TCPIP Stack\StackTsk.c
                   __pa_0   0x00c870    program     static D:\Final\PIC_Module\Microchip\TCPIP Stack\StackTsk.c
                   __pa_1   0x00c880    program     static D:\Final\PIC_Module\Microchip\TCPIP Stack\StackTsk.c
                   __pa_2   0x00c88c    program     static D:\Final\PIC_Module\Microchip\TCPIP Stack\StackTsk.c
                   __pa_3   0x00c898    program     static D:\Final\PIC_Module\Microchip\TCPIP Stack\StackTsk.c
              ICMPProcess   0x00c8a2    program     extern D:\Final\PIC_Module\Microchip\TCPIP Stack\ICMP.c
                   __pa_0   0x00c9a6    program     static D:\Final\PIC_Module\Microchip\TCPIP Stack\ICMP.c
                   __pa_1   0x00c9b4    program     static D:\Final\PIC_Module\Microchip\TCPIP Stack\ICMP.c
                   __pa_2   0x00c9c2    program     static D:\Final\PIC_Module\Microchip\TCPIP Stack\ICMP.c
                        K   0x00c9cc    program     static D:\Final\PIC_Module\Miner\MySha256.c
                 TickInit   0x00cacc    program     extern D:\Final\PIC_Module\Microchip\TCPIP Stack\Tick.c
              GetTickCopy   0x00cadc    program     static D:\Final\PIC_Module\Microchip\TCPIP Stack\Tick.c
           ___do_lbl00004   0x00cadc    program     static                          
           ___do_lbl00002   0x00cafa    program     static                          
           ___do_lbl00003   0x00cafe    program     static                          
       ___return_lbl00001   0x00cb00    program     static                          
                  TickGet   0x00cb02    program     extern D:\Final\PIC_Module\Microchip\TCPIP Stack\Tick.c
            TickGetDiv256   0x00cb16    program     extern D:\Final\PIC_Module\Microchip\TCPIP Stack\Tick.c
            TickGetDiv64K   0x00cb40    program     extern D:\Final\PIC_Module\Microchip\TCPIP Stack\Tick.c
               TickUpdate   0x00cb6a    program     extern D:\Final\PIC_Module\Microchip\TCPIP Stack\Tick.c
                   __pa_0   0x00cb8a    program     static D:\Final\PIC_Module\Microchip\TCPIP Stack\Tick.c
                   __pa_1   0x00cba4    program     static D:\Final\PIC_Module\Microchip\TCPIP Stack\Tick.c
                _do_cinit   0x00cbb4    program     extern D:\3.43\pic18-lt\cxx-framework\src\traditional\startup\c018i.c
                     test   0x00cbce    program     static                          
                copy_loop   0x00cc26    program     static                          
            copy_one_byte   0x00cc2c    program     static                          
             done_copying   0x00cc3a    program     static                          
       ___return_lbl00002   0x00cc50    program     static                          
                     done   0x00cc50    program     static                          
               WriteUSART   0x00cc52    program     extern D:\Final\PIC_Module\Microchip\TCPIP Stack\UART.c
                putsUSART   0x00cc60    program     extern D:\Final\PIC_Module\Microchip\TCPIP Stack\UART.c
               putrsUSART   0x00cc90    program     extern D:\Final\PIC_Module\Microchip\TCPIP Stack\UART.c
                   __pa_0   0x00ccd8    program     static D:\Final\PIC_Module\Microchip\TCPIP Stack\UART.c
                   __pa_1   0x00cce2    program     static D:\Final\PIC_Module\Microchip\TCPIP Stack\UART.c
                  FXM3232   0x00ccea    program     extern D:\3.43\pic18-lt\cxx-framework\src\traditional\math\fxm3232.c
       ___return_lbl00000   0x00cd58    program     static                          
                 FXD3232U   0x00cd5a    program     extern D:\3.43\pic18-lt\cxx-framework\src\traditional\math\fxd3232u.c
                     loop   0x00cd68    program     static                          
                   _false   0x00cd9c    program     static                          
       ___return_lbl00000   0x00cda0    program     static                          
     TCPSocketInitializer   0x00cda2    program     extern D:\Final\PIC_Module\Miner\TCPIPConfig.h
                   fnonce   0x00cdd8    program     static D:\Final\PIC_Module\Miner\Miner_Main.c
                     s_PB   0x00cddc    program     extern D:\Final\PIC_Module\Miner\Miner_Main.c
                     s_EP   0x00cdeb    program     extern D:\Final\PIC_Module\Miner\Miner_Main.c
                 sWebOnly   0x00cdfa    program     static D:\Final\PIC_Module\Miner\Miner_Main.c
             Delay10KTCYx   0x00ce0e    program     extern D:\3.43\pic18-lt\cxx-framework\src\traditional\delays\d10ktcyx.asm
                    D10Kx   0x00ce18    program     static D:\3.43\pic18-lt\cxx-framework\src\traditional\delays\d10ktcyx.asm
                   D10K_1   0x00ce1a    program     static D:\3.43\pic18-lt\cxx-framework\src\traditional\delays\d10ktcyx.asm
       _D10KTCYXCODE_0010   0x00ce1e    program     static D:\3.43\pic18-lt\cxx-framework\src\traditional\delays\d10ktcyx.asm
                    D10Kl   0x00ce26    program     static D:\3.43\pic18-lt\cxx-framework\src\traditional\delays\d10ktcyx.asm
       _D10KTCYXCODE_001C   0x00ce2a    program     static D:\3.43\pic18-lt\cxx-framework\src\traditional\delays\d10ktcyx.asm
                 FXD1616U   0x00ce3c    program     extern D:\3.43\pic18-lt\cxx-framework\src\traditional\math\fxd1616u.c
                     loop   0x00ce46    program     static                          
                  endloop   0x00ce62    program     static                          
       ___return_lbl00000   0x00ce66    program     static                          
            __zero_memory   0x00ce68    program     extern D:\3.43\pic18-lt\cxx-framework\src\traditional\proc\p18f67j60.asm
                   loop_h   0x00ce82    program     static D:\3.43\pic18-lt\cxx-framework\src\traditional\proc\p18f67j60.asm
               zero_block   0x00ce82    program     static D:\3.43\pic18-lt\cxx-framework\src\traditional\proc\p18f67j60.asm
                compare_l   0x00ce8a    program     static D:\3.43\pic18-lt\cxx-framework\src\traditional\proc\p18f67j60.asm
                   loop_l   0x00ce8c    program     static D:\3.43\pic18-lt\cxx-framework\src\traditional\proc\p18f67j60.asm
                 _startup   0x00ce94    program     extern D:\3.43\pic18-lt\cxx-framework\src\traditional\startup\c018i.c
                     loop   0x00cea4    program     static                          
       ___return_lbl00001   0x00ceae    program     static                          
                 FXD0808U   0x00ceb0    program     extern D:\3.43\pic18-lt\cxx-framework\src\traditional\math\fxd0808u.c
                     loop   0x00ceb8    program     static                          
                  endloop   0x00cec6    program     static                          
       ___return_lbl00000   0x00ceca    program     static                          
                   __init   0x00cecc    program     extern D:\3.43\pic18-lt\cxx-framework\src\traditional\stdclib\__init.c
                     rapc   0x01f800    program     extern D:\Final\PIC_Module\Miner\Miner_Main.c
                 rMinPool   0x01f828    program     extern D:\Final\PIC_Module\Miner\Miner_Main.c
                 rUsrPass   0x01f868    program     extern D:\Final\PIC_Module\Miner\Miner_Main.c
                     fapc   0x01f8e4    program     extern D:\Final\PIC_Module\Miner\Miner_Main.c
                 fMinPool   0x01f90c    program     extern D:\Final\PIC_Module\Miner\Miner_Main.c
                 fUsrPass   0x01f94c    program     extern D:\Final\PIC_Module\Miner\Miner_Main.c
                    sBoot   0x01f9c8    program     static D:\Final\PIC_Module\Miner\Miner_Main.c
                 sStarted   0x01f9d9    program     static D:\Final\PIC_Module\Miner\Miner_Main.c
                    fhash   0x01f9f5    program     static D:\Final\PIC_Module\Miner\Miner_Main.c
                     LFCR   0x01fa21    program     extern D:\Final\PIC_Module\Miner\Miner_Main.c
                  Prepare   0x01fc00    program     static D:\Final\PIC_Module\Miner\Miner_Main.c
                    again   0x01fc52    program     static                          
           ___if_lbl00225   0x01fc52    program     static                          
           ___if_lbl00226   0x01fc66    program     static                          
           ___if_lbl00227   0x01fc70    program     static                          
              __tmplbl_18   0x01fd04    program     static                          
              __tmplbl_17   0x01fd16    program     static                          
              __tmplbl_16   0x01fd20    program     static                          
           ___if_lbl00230   0x01fd2a    program     static                          
           ___if_lbl00231   0x01fd3e    program     static                          
        ___while_lbl00232   0x01fd4a    program     static                          
          ___for_lbl00241   0x01fd82    program     static                          
           ___if_lbl00236   0x01fd96    program     static                          
           ___if_lbl00237   0x01fdd4    program     static                          
           ___if_lbl00239   0x01fdee    program     static                          
           ___if_lbl00238   0x01fdee    program     static                          
          ___for_lbl00234   0x01fdee    program     static                          
           ___if_lbl00240   0x01fdee    program     static                          
          ___for_lbl00235   0x01fdf0    program     static                          
           ___if_lbl00242   0x01fe12    program     static                          
        ___while_lbl00243   0x01fe3c    program     static                          
        ___while_lbl00245   0x01fe40    program     static                          
        ___while_lbl00244   0x01fe40    program     static                          
        ___while_lbl00246   0x01fe44    program     static                          
           ___if_lbl00247   0x01fe44    program     static                          
          ___for_lbl00255   0x01fe48    program     static                          
          ___for_lbl00252   0x01fe72    program     static                          
          ___for_lbl00250   0x01fe9e    program     static                          
          ___for_lbl00251   0x01fea4    program     static                          
        ___while_lbl00253   0x01fec8    program     static                          
          ___for_lbl00248   0x01fecc    program     static                          
        ___while_lbl00254   0x01fecc    program     static                          
          ___for_lbl00249   0x01fed2    program     static                          
        ___while_lbl00233   0x01fee4    program     static                          
       ___return_lbl00224   0x01fee8    program     static                          
                   Eraser   0x01fefc    program     extern D:\Final\PIC_Module\Miner\Miner_Main.c
        ___while_lbl00257   0x01fefc    program     static                          
        ___while_lbl00259   0x01ff1e    program     static                          
        ___while_lbl00261   0x01ff22    program     static                          
        ___while_lbl00260   0x01ff22    program     static                          
        ___while_lbl00262   0x01ff26    program     static                          
        ___while_lbl00258   0x01ff30    program     static                          
       ___return_lbl00256   0x01ff30    program     static                          
                 Get_UART   0x01ff32    program     static D:\Final\PIC_Module\Miner\Miner_Main.c
                cPutcUART   0x01ffce    program     static D:\Final\PIC_Module\Miner\Miner_Main.c
               __config_0   0x01fff8    program     static D:\Final\PIC_Module\Miner\Miner_Main.c
               __config_1   0x01fff9    program     static D:\Final\PIC_Module\Miner\Miner_Main.c
               __config_2   0x01fffa    program     static D:\Final\PIC_Module\Miner\Miner_Main.c
               __config_3   0x01fffb    program     static D:\Final\PIC_Module\Miner\Miner_Main.c
               __config_4   0x01fffd    program     static D:\Final\PIC_Module\Miner\Miner_Main.c
                  __tmp_0   0x000000       data     static D:\Final\PIC_Module\Microchip\TCPIP Stack\ICMP.c
                  __tmp_0   0x000000       data     static D:\Final\PIC_Module\Microchip\TCPIP Stack\IP.c
                  __tmp_0   0x000000       data     static D:\Final\PIC_Module\Microchip\TCPIP Stack\StackTsk.c
                  __tmp_0   0x000000       data     static D:\Final\PIC_Module\Microchip\TCPIP Stack\DNS.c
                  __tmp_0   0x000000       data     static D:\Final\PIC_Module\Microchip\TCPIP Stack\TCP.c
                  __tmp_0   0x000000       data     static D:\Final\PIC_Module\Microchip\TCPIP Stack\UDP.c
                  __tmp_0   0x000000       data     static D:\Final\PIC_Module\Microchip\TCPIP Stack\Helpers.c
                  __tmp_0   0x000000       data     static D:\Final\PIC_Module\Microchip\TCPIP Stack\ETH97J60.c
                  __tmp_0   0x000000       data     static D:\Final\PIC_Module\Microchip\TCPIP Stack\ARP.c
                  __tmp_0   0x000000       data     static D:\Final\PIC_Module\Miner\GetPutWork.c
                  __tmp_0   0x000000       data     static D:\Final\PIC_Module\Miner\Miner_Main.c
                  __tmp_0   0x000000       data     static D:\Final\PIC_Module\Miner\Miner_WEB.c
                  __tmp_0   0x000000       data     static D:\Final\PIC_Module\Miner\MySha256.c
                     SIGN   0x000034       data     extern D:\3.43\pic18-lt\cxx-framework\src\traditional\math\cmath18.asm
                __FPFLAGS   0x000035       data     extern D:\3.43\pic18-lt\cxx-framework\src\traditional\math\cmath18.asm
            __FPFLAGSbits   0x000035       data     extern D:\3.43\pic18-lt\cxx-framework\src\traditional\math\cmath18.asm
                  __REMB3   0x000036       data     extern D:\3.43\pic18-lt\cxx-framework\src\traditional\math\aarg.asm
                 __AARGB7   0x000036       data     extern D:\3.43\pic18-lt\cxx-framework\src\traditional\math\aarg.asm
                  __REMB2   0x000037       data     extern D:\3.43\pic18-lt\cxx-framework\src\traditional\math\aarg.asm
                 __AARGB6   0x000037       data     extern D:\3.43\pic18-lt\cxx-framework\src\traditional\math\aarg.asm
                  __REMB1   0x000038       data     extern D:\3.43\pic18-lt\cxx-framework\src\traditional\math\aarg.asm
                 __AARGB5   0x000038       data     extern D:\3.43\pic18-lt\cxx-framework\src\traditional\math\aarg.asm
                 __AARGB4   0x000039       data     extern D:\3.43\pic18-lt\cxx-framework\src\traditional\math\aarg.asm
                  __REMB0   0x000039       data     extern D:\3.43\pic18-lt\cxx-framework\src\traditional\math\aarg.asm
                 __AARGB3   0x00003a       data     extern D:\3.43\pic18-lt\cxx-framework\src\traditional\math\aarg.asm
                 __AARGB2   0x00003b       data     extern D:\3.43\pic18-lt\cxx-framework\src\traditional\math\aarg.asm
                 __AARGB1   0x00003c       data     extern D:\3.43\pic18-lt\cxx-framework\src\traditional\math\aarg.asm
                 __AARGB0   0x00003d       data     extern D:\3.43\pic18-lt\cxx-framework\src\traditional\math\aarg.asm
                   __AEXP   0x00003e       data     extern D:\3.43\pic18-lt\cxx-framework\src\traditional\math\aarg.asm
                 __BARGB3   0x00003f       data     extern D:\3.43\pic18-lt\cxx-framework\src\traditional\math\barg.asm
                 __BARGB2   0x000040       data     extern D:\3.43\pic18-lt\cxx-framework\src\traditional\math\barg.asm
                 __BARGB1   0x000041       data     extern D:\3.43\pic18-lt\cxx-framework\src\traditional\math\barg.asm
                 __BARGB0   0x000042       data     extern D:\3.43\pic18-lt\cxx-framework\src\traditional\math\barg.asm
                   __BEXP   0x000043       data     extern D:\3.43\pic18-lt\cxx-framework\src\traditional\math\barg.asm
                 __TEMPB3   0x000044       data     extern D:\3.43\pic18-lt\cxx-framework\src\traditional\math\temparg.asm
                 __TEMPB2   0x000045       data     extern D:\3.43\pic18-lt\cxx-framework\src\traditional\math\temparg.asm
                 __TEMPB1   0x000046       data     extern D:\3.43\pic18-lt\cxx-framework\src\traditional\math\temparg.asm
                   __TEMP   0x000047       data     extern D:\3.43\pic18-lt\cxx-framework\src\traditional\math\temparg.asm
                 __TEMPB0   0x000047       data     extern D:\3.43\pic18-lt\cxx-framework\src\traditional\math\temparg.asm
            DelayCounter2   0x000048       data     extern D:\3.43\pic18-lt\cxx-framework\src\traditional\delays\delayd2.asm
            DelayCounter1   0x000049       data     extern D:\3.43\pic18-lt\cxx-framework\src\traditional\delays\delayd1.asm
                 TCBStubs   0x000060       data     static D:\Final\PIC_Module\Microchip\TCPIP Stack\TCP.c
                      IPs   0x00015c       data     static D:\Final\PIC_Module\Miner\GetPutWork.c
                     gwix   0x000160       data     static D:\Final\PIC_Module\Miner\GetPutWork.c
                     pwix   0x000161       data     static D:\Final\PIC_Module\Miner\GetPutWork.c
                    bLEDs   0x000162       data     extern D:\Final\PIC_Module\Miner\GetPutWork.c
                     subm   0x000163       data     extern D:\Final\PIC_Module\Miner\GetPutWork.c
                     gotn   0x000167       data     extern D:\Final\PIC_Module\Miner\GetPutWork.c
                    State   0x00016b       data     static D:\Final\PIC_Module\Miner\GetPutWork.c
                    Statw   0x00016f       data     static D:\Final\PIC_Module\Miner\GetPutWork.c
                    gsock   0x000173       data     static D:\Final\PIC_Module\Miner\GetPutWork.c
                    psock   0x000177       data     static D:\Final\PIC_Module\Miner\GetPutWork.c
                      tmt   0x00017b       data     static D:\Final\PIC_Module\Miner\GetPutWork.c
                       id   0x00017c       data     static D:\Final\PIC_Module\Miner\GetPutWork.c
                    WdTim   0x00017d       data     static D:\Final\PIC_Module\Miner\GetPutWork.c
                     mask   0x000181       data     static D:\Final\PIC_Module\Miner\GetPutWork.c
              DNSHostName   0x000182       data     static D:\Final\PIC_Module\Microchip\TCPIP Stack\DNS.c
           DNSHostNameROM   0x000184       data     static D:\Final\PIC_Module\Microchip\TCPIP Stack\DNS.c
               RecordType   0x000187       data     static D:\Final\PIC_Module\Microchip\TCPIP Stack\DNS.c
             ResolvedInfo   0x000188       data     static D:\Final\PIC_Module\Microchip\TCPIP Stack\DNS.c
                StartTime   0x000192       data     static D:\Final\PIC_Module\Microchip\TCPIP Stack\DNS.c
        SentTransactionID   0x000196       data     static D:\Final\PIC_Module\Microchip\TCPIP Stack\DNS.c
         vARPAttemptCount   0x000198       data     static D:\Final\PIC_Module\Microchip\TCPIP Stack\DNS.c
         vDNSAttemptCount   0x000199       data     static D:\Final\PIC_Module\Microchip\TCPIP Stack\DNS.c
                    Cache   0x00019a       data     static D:\Final\PIC_Module\Microchip\TCPIP Stack\ARP.c
                   Target   0x0001a4       data     static D:\Final\PIC_Module\Microchip\TCPIP Stack\ARP.c
                    exist   0x0001ae       data     static D:\Final\PIC_Module\Miner\Miner_Main.c
                    nonce   0x0001b2       data     extern D:\Final\PIC_Module\Miner\Miner_Main.c
                     SYSF   0x0001b6       data     extern D:\Final\PIC_Module\Miner\Miner_Main.c
                       bt   0x0001b7       data     static D:\Final\PIC_Module\Miner\Miner_Main.c
                       wh   0x0001b8       data     static D:\Final\PIC_Module\Miner\Miner_Main.c
                       wm   0x0001ba       data     static D:\Final\PIC_Module\Miner\Miner_Main.c
                        x   0x0001bc       data     static D:\Final\PIC_Module\Miner\Miner_Main.c
                       pg   0x0001bd       data     static D:\Final\PIC_Module\Miner\Miner_Main.c
                        c   0x0001be       data     static D:\Final\PIC_Module\Miner\Miner_Main.c
                        i   0x0001bf       data     static D:\Final\PIC_Module\Miner\Miner_Main.c
               remoteNode   0x0001c0       data     extern D:\Final\PIC_Module\Microchip\TCPIP Stack\StackTsk.c
          dwInternalTicks   0x0001ca       data     static D:\Final\PIC_Module\Microchip\TCPIP Stack\Tick.c
                   dwRunt   0x0001ce       data     extern D:\Final\PIC_Module\Microchip\TCPIP Stack\Tick.c
             vTickReading   0x0001d2       data     static D:\Final\PIC_Module\Microchip\TCPIP Stack\Tick.c
                        t   0x0001d8       data     static D:\Final\PIC_Module\Miner\Miner_Main.c
                     page   0x0001dc       data     static D:\Final\PIC_Module\Miner\Miner_Main.c
                    smARP   0x0001de       data     static D:\Final\PIC_Module\Microchip\TCPIP Stack\ARP.c
                      ipo   0x0001df       data     static D:\Final\PIC_Module\Microchip\TCPIP Stack\ARP.c
                 MySocket   0x0001e3       data     static D:\Final\PIC_Module\Microchip\TCPIP Stack\DNS.c
                    Flags   0x0001e4       data     static D:\Final\PIC_Module\Microchip\TCPIP Stack\DNS.c
                    smDNS   0x0001e5       data     static D:\Final\PIC_Module\Microchip\TCPIP Stack\DNS.c
                      who   0x0001e6       data     static D:\Final\PIC_Module\Microchip\TCPIP Stack\DNS.c
                     Seed   0x0001e7       data     static D:\3.43\pic18-lt\cxx-framework\src\traditional\stdclib\rand.asm
            LastPutSocket   0x0001e9       data     static D:\Final\PIC_Module\Microchip\TCPIP Stack\UDP.c
         SocketWithRxData   0x0001ea       data     static D:\Final\PIC_Module\Microchip\TCPIP Stack\UDP.c
              hCurrentTCP   0x0001eb       data     static D:\Final\PIC_Module\Microchip\TCPIP Stack\TCP.c
                 hLastTCB   0x0001ec       data     static D:\Final\PIC_Module\Microchip\TCPIP Stack\TCP.c
                 httpData   0x0001ed       data     extern D:\Final\PIC_Module\Miner\Miner_WEB.c
              _Identifier   0x0001ef       data     static D:\Final\PIC_Module\Microchip\TCPIP Stack\IP.c
              IPHeaderLen   0x0001f1       data     static D:\Final\PIC_Module\Microchip\TCPIP Stack\IP.c
                    sdami   0x000200       data     extern D:\Final\PIC_Module\Miner\GetPutWork.c
                    spwrk   0x000560       data     extern D:\Final\PIC_Module\Miner\GetPutWork.c
                AppConfig   0x0007e8       data     extern D:\Final\PIC_Module\Miner\GetPutWork.c
                      mid   0x000810       data     static D:\Final\PIC_Module\Miner\GetPutWork.c
                      dat   0x000812       data     static D:\Final\PIC_Module\Miner\GetPutWork.c
                    Timer   0x000814       data     static D:\Final\PIC_Module\Miner\GetPutWork.c
                    Timer   0x000824       data     static D:\Final\PIC_Module\Miner\GetPutWork.c
                      HCB   0x000834       data     static D:\Final\PIC_Module\Miner\Miner_WEB.c
                     acci   0x000bba       data     extern D:\Final\PIC_Module\Miner\Miner_WEB.c
                       ph   0x000c3a       data     static D:\Final\PIC_Module\Miner\Miner_WEB.c
                        p   0x000c3c       data     static D:\Final\PIC_Module\Miner\Miner_WEB.c
                        t   0x000c3e       data     static D:\Final\PIC_Module\Miner\Miner_WEB.c
                       qw   0x000c40       data     static D:\Final\PIC_Module\Miner\Miner_WEB.c
                     ruti   0x000c44       data     static D:\Final\PIC_Module\Miner\Miner_WEB.c
                      eti   0x000c48       data     static D:\Final\PIC_Module\Miner\Miner_WEB.c
                      uti   0x000c4c       data     static D:\Final\PIC_Module\Miner\Miner_WEB.c
                 SYNQueue   0x000e00       data     static D:\Final\PIC_Module\Microchip\TCPIP Stack\TCP.c
                       T1   0x000e3c       data     static D:\Final\PIC_Module\Miner\MySha256.c
                       T2   0x000e40       data     static D:\Final\PIC_Module\Miner\MySha256.c
                        A   0x000e44       data     static D:\Final\PIC_Module\Miner\MySha256.c
                        B   0x000e48       data     static D:\Final\PIC_Module\Miner\MySha256.c
                        C   0x000e4c       data     static D:\Final\PIC_Module\Miner\MySha256.c
                        D   0x000e50       data     static D:\Final\PIC_Module\Miner\MySha256.c
                        E   0x000e54       data     static D:\Final\PIC_Module\Miner\MySha256.c
                        F   0x000e58       data     static D:\Final\PIC_Module\Miner\MySha256.c
                        G   0x000e5c       data     static D:\Final\PIC_Module\Miner\MySha256.c
                        H   0x000e60       data     static D:\Final\PIC_Module\Miner\MySha256.c
            UDPSocketInfo   0x000e64       data     extern D:\Final\PIC_Module\Microchip\TCPIP Stack\UDP.c
          activeUDPSocket   0x000e72       data     extern D:\Final\PIC_Module\Microchip\TCPIP Stack\UDP.c
               UDPTxCount   0x000e73       data     extern D:\Final\PIC_Module\Microchip\TCPIP Stack\UDP.c
               UDPRxCount   0x000e75       data     extern D:\Final\PIC_Module\Microchip\TCPIP Stack\UDP.c
               wPutOffset   0x000e77       data     static D:\Final\PIC_Module\Microchip\TCPIP Stack\UDP.c
               wGetOffset   0x000e79       data     static D:\Final\PIC_Module\Microchip\TCPIP Stack\UDP.c
                    Flags   0x000e7b       data     static D:\Final\PIC_Module\Microchip\TCPIP Stack\UDP.c
                 NextPort   0x000e7c       data     static D:\Final\PIC_Module\Microchip\TCPIP Stack\UDP.c
              tblptru_sav   0x000e7e       data     static D:\3.43\pic18-lt\cxx-framework\src\traditional\stdclib\mcmpp2r.asm
              tblptru_sav   0x000e7f       data     static D:\3.43\pic18-lt\cxx-framework\src\traditional\stdclib\mcpyp2r.asm
                   MAADR5   0x000e80       data     extern D:\3.43\pic18-lt\cxx-framework\src\traditional\proc\p18f67j60.asm
                   MAADR6   0x000e81       data     extern D:\3.43\pic18-lt\cxx-framework\src\traditional\proc\p18f67j60.asm
                   MAADR3   0x000e82       data     extern D:\3.43\pic18-lt\cxx-framework\src\traditional\proc\p18f67j60.asm
                   MAADR4   0x000e83       data     extern D:\3.43\pic18-lt\cxx-framework\src\traditional\proc\p18f67j60.asm
                   MAADR1   0x000e84       data     extern D:\3.43\pic18-lt\cxx-framework\src\traditional\proc\p18f67j60.asm
                   MAADR2   0x000e85       data     extern D:\3.43\pic18-lt\cxx-framework\src\traditional\proc\p18f67j60.asm
                   MISTAT   0x000e8a       data     extern D:\3.43\pic18-lt\cxx-framework\src\traditional\proc\p18f67j60.asm
               MISTATbits   0x000e8a       data     extern D:\3.43\pic18-lt\cxx-framework\src\traditional\proc\p18f67j60.asm
                  EFLOCON   0x000e97       data     extern D:\3.43\pic18-lt\cxx-framework\src\traditional\proc\p18f67j60.asm
              EFLOCONbits   0x000e97       data     extern D:\3.43\pic18-lt\cxx-framework\src\traditional\proc\p18f67j60.asm
                   EPAUSL   0x000e98       data     extern D:\3.43\pic18-lt\cxx-framework\src\traditional\proc\p18f67j60.asm
                    EPAUS   0x000e98       data     extern D:\3.43\pic18-lt\cxx-framework\src\traditional\proc\p18f67j60.asm
                   EPAUSH   0x000e99       data     extern D:\3.43\pic18-lt\cxx-framework\src\traditional\proc\p18f67j60.asm
                   MACON1   0x000ea0       data     extern D:\3.43\pic18-lt\cxx-framework\src\traditional\proc\p18f67j60.asm
               MACON1bits   0x000ea0       data     extern D:\3.43\pic18-lt\cxx-framework\src\traditional\proc\p18f67j60.asm
                   MACON3   0x000ea2       data     extern D:\3.43\pic18-lt\cxx-framework\src\traditional\proc\p18f67j60.asm
               MACON3bits   0x000ea2       data     extern D:\3.43\pic18-lt\cxx-framework\src\traditional\proc\p18f67j60.asm
                   MACON4   0x000ea3       data     extern D:\3.43\pic18-lt\cxx-framework\src\traditional\proc\p18f67j60.asm
               MACON4bits   0x000ea3       data     extern D:\3.43\pic18-lt\cxx-framework\src\traditional\proc\p18f67j60.asm
              MABBIPGbits   0x000ea4       data     extern D:\3.43\pic18-lt\cxx-framework\src\traditional\proc\p18f67j60.asm
                  MABBIPG   0x000ea4       data     extern D:\3.43\pic18-lt\cxx-framework\src\traditional\proc\p18f67j60.asm
                    MAIPG   0x000ea6       data     extern D:\3.43\pic18-lt\cxx-framework\src\traditional\proc\p18f67j60.asm
                   MAIPGL   0x000ea6       data     extern D:\3.43\pic18-lt\cxx-framework\src\traditional\proc\p18f67j60.asm
                   MAIPGH   0x000ea7       data     extern D:\3.43\pic18-lt\cxx-framework\src\traditional\proc\p18f67j60.asm
                   MAMXFL   0x000eaa       data     extern D:\3.43\pic18-lt\cxx-framework\src\traditional\proc\p18f67j60.asm
                  MAMXFLL   0x000eaa       data     extern D:\3.43\pic18-lt\cxx-framework\src\traditional\proc\p18f67j60.asm
                  MAMXFLH   0x000eab       data     extern D:\3.43\pic18-lt\cxx-framework\src\traditional\proc\p18f67j60.asm
                MICMDbits   0x000eb2       data     extern D:\3.43\pic18-lt\cxx-framework\src\traditional\proc\p18f67j60.asm
                    MICMD   0x000eb2       data     extern D:\3.43\pic18-lt\cxx-framework\src\traditional\proc\p18f67j60.asm
                 MIREGADR   0x000eb4       data     extern D:\3.43\pic18-lt\cxx-framework\src\traditional\proc\p18f67j60.asm
                     MIWR   0x000eb6       data     extern D:\3.43\pic18-lt\cxx-framework\src\traditional\proc\p18f67j60.asm
                    MIWRL   0x000eb6       data     extern D:\3.43\pic18-lt\cxx-framework\src\traditional\proc\p18f67j60.asm
                    MIWRH   0x000eb7       data     extern D:\3.43\pic18-lt\cxx-framework\src\traditional\proc\p18f67j60.asm
                     MIRD   0x000eb8       data     extern D:\3.43\pic18-lt\cxx-framework\src\traditional\proc\p18f67j60.asm
                    MIRDL   0x000eb8       data     extern D:\3.43\pic18-lt\cxx-framework\src\traditional\proc\p18f67j60.asm
                    MIRDH   0x000eb9       data     extern D:\3.43\pic18-lt\cxx-framework\src\traditional\proc\p18f67j60.asm
                     EHT0   0x000ec0       data     extern D:\3.43\pic18-lt\cxx-framework\src\traditional\proc\p18f67j60.asm
                     EHT1   0x000ec1       data     extern D:\3.43\pic18-lt\cxx-framework\src\traditional\proc\p18f67j60.asm
                     EHT2   0x000ec2       data     extern D:\3.43\pic18-lt\cxx-framework\src\traditional\proc\p18f67j60.asm
                     EHT3   0x000ec3       data     extern D:\3.43\pic18-lt\cxx-framework\src\traditional\proc\p18f67j60.asm
                     EHT4   0x000ec4       data     extern D:\3.43\pic18-lt\cxx-framework\src\traditional\proc\p18f67j60.asm
                     EHT5   0x000ec5       data     extern D:\3.43\pic18-lt\cxx-framework\src\traditional\proc\p18f67j60.asm
                     EHT6   0x000ec6       data     extern D:\3.43\pic18-lt\cxx-framework\src\traditional\proc\p18f67j60.asm
                     EHT7   0x000ec7       data     extern D:\3.43\pic18-lt\cxx-framework\src\traditional\proc\p18f67j60.asm
                    EPMM0   0x000ec8       data     extern D:\3.43\pic18-lt\cxx-framework\src\traditional\proc\p18f67j60.asm
                    EPMM1   0x000ec9       data     extern D:\3.43\pic18-lt\cxx-framework\src\traditional\proc\p18f67j60.asm
                    EPMM2   0x000eca       data     extern D:\3.43\pic18-lt\cxx-framework\src\traditional\proc\p18f67j60.asm
                    EPMM3   0x000ecb       data     extern D:\3.43\pic18-lt\cxx-framework\src\traditional\proc\p18f67j60.asm
                    EPMM4   0x000ecc       data     extern D:\3.43\pic18-lt\cxx-framework\src\traditional\proc\p18f67j60.asm
                    EPMM5   0x000ecd       data     extern D:\3.43\pic18-lt\cxx-framework\src\traditional\proc\p18f67j60.asm
                    EPMM6   0x000ece       data     extern D:\3.43\pic18-lt\cxx-framework\src\traditional\proc\p18f67j60.asm
                    EPMM7   0x000ecf       data     extern D:\3.43\pic18-lt\cxx-framework\src\traditional\proc\p18f67j60.asm
                    EPMCS   0x000ed0       data     extern D:\3.43\pic18-lt\cxx-framework\src\traditional\proc\p18f67j60.asm
                   EPMCSL   0x000ed0       data     extern D:\3.43\pic18-lt\cxx-framework\src\traditional\proc\p18f67j60.asm
                   EPMCSH   0x000ed1       data     extern D:\3.43\pic18-lt\cxx-framework\src\traditional\proc\p18f67j60.asm
                    EPMOL   0x000ed4       data     extern D:\3.43\pic18-lt\cxx-framework\src\traditional\proc\p18f67j60.asm
                     EPMO   0x000ed4       data     extern D:\3.43\pic18-lt\cxx-framework\src\traditional\proc\p18f67j60.asm
                    EPMOH   0x000ed5       data     extern D:\3.43\pic18-lt\cxx-framework\src\traditional\proc\p18f67j60.asm
              ERXFCONbits   0x000ed8       data     extern D:\3.43\pic18-lt\cxx-framework\src\traditional\proc\p18f67j60.asm
                  ERXFCON   0x000ed8       data     extern D:\3.43\pic18-lt\cxx-framework\src\traditional\proc\p18f67j60.asm
                  EPKTCNT   0x000ed9       data     extern D:\3.43\pic18-lt\cxx-framework\src\traditional\proc\p18f67j60.asm
                   EWRPTL   0x000ee2       data     extern D:\3.43\pic18-lt\cxx-framework\src\traditional\proc\p18f67j60.asm
                    EWRPT   0x000ee2       data     extern D:\3.43\pic18-lt\cxx-framework\src\traditional\proc\p18f67j60.asm
                   EWRPTH   0x000ee3       data     extern D:\3.43\pic18-lt\cxx-framework\src\traditional\proc\p18f67j60.asm
                   ETXSTL   0x000ee4       data     extern D:\3.43\pic18-lt\cxx-framework\src\traditional\proc\p18f67j60.asm
                    ETXST   0x000ee4       data     extern D:\3.43\pic18-lt\cxx-framework\src\traditional\proc\p18f67j60.asm
                   ETXSTH   0x000ee5       data     extern D:\3.43\pic18-lt\cxx-framework\src\traditional\proc\p18f67j60.asm
                   ETXNDL   0x000ee6       data     extern D:\3.43\pic18-lt\cxx-framework\src\traditional\proc\p18f67j60.asm
                    ETXND   0x000ee6       data     extern D:\3.43\pic18-lt\cxx-framework\src\traditional\proc\p18f67j60.asm
                   ETXNDH   0x000ee7       data     extern D:\3.43\pic18-lt\cxx-framework\src\traditional\proc\p18f67j60.asm
                    ERXST   0x000ee8       data     extern D:\3.43\pic18-lt\cxx-framework\src\traditional\proc\p18f67j60.asm
                   ERXSTL   0x000ee8       data     extern D:\3.43\pic18-lt\cxx-framework\src\traditional\proc\p18f67j60.asm
                   ERXSTH   0x000ee9       data     extern D:\3.43\pic18-lt\cxx-framework\src\traditional\proc\p18f67j60.asm
                    ERXND   0x000eea       data     extern D:\3.43\pic18-lt\cxx-framework\src\traditional\proc\p18f67j60.asm
                   ERXNDL   0x000eea       data     extern D:\3.43\pic18-lt\cxx-framework\src\traditional\proc\p18f67j60.asm
                   ERXNDH   0x000eeb       data     extern D:\3.43\pic18-lt\cxx-framework\src\traditional\proc\p18f67j60.asm
                  ERXRDPT   0x000eec       data     extern D:\3.43\pic18-lt\cxx-framework\src\traditional\proc\p18f67j60.asm
                 ERXRDPTL   0x000eec       data     extern D:\3.43\pic18-lt\cxx-framework\src\traditional\proc\p18f67j60.asm
                 ERXRDPTH   0x000eed       data     extern D:\3.43\pic18-lt\cxx-framework\src\traditional\proc\p18f67j60.asm
                  ERXWRPT   0x000eee       data     extern D:\3.43\pic18-lt\cxx-framework\src\traditional\proc\p18f67j60.asm
                 ERXWRPTL   0x000eee       data     extern D:\3.43\pic18-lt\cxx-framework\src\traditional\proc\p18f67j60.asm
                 ERXWRPTH   0x000eef       data     extern D:\3.43\pic18-lt\cxx-framework\src\traditional\proc\p18f67j60.asm
                  EDMASTL   0x000ef0       data     extern D:\3.43\pic18-lt\cxx-framework\src\traditional\proc\p18f67j60.asm
                   EDMAST   0x000ef0       data     extern D:\3.43\pic18-lt\cxx-framework\src\traditional\proc\p18f67j60.asm
                  EDMASTH   0x000ef1       data     extern D:\3.43\pic18-lt\cxx-framework\src\traditional\proc\p18f67j60.asm
                   EDMAND   0x000ef2       data     extern D:\3.43\pic18-lt\cxx-framework\src\traditional\proc\p18f67j60.asm
                  EDMANDL   0x000ef2       data     extern D:\3.43\pic18-lt\cxx-framework\src\traditional\proc\p18f67j60.asm
                  EDMANDH   0x000ef3       data     extern D:\3.43\pic18-lt\cxx-framework\src\traditional\proc\p18f67j60.asm
                 EDMADSTL   0x000ef4       data     extern D:\3.43\pic18-lt\cxx-framework\src\traditional\proc\p18f67j60.asm
                  EDMADST   0x000ef4       data     extern D:\3.43\pic18-lt\cxx-framework\src\traditional\proc\p18f67j60.asm
                 EDMADSTH   0x000ef5       data     extern D:\3.43\pic18-lt\cxx-framework\src\traditional\proc\p18f67j60.asm
                  EDMACSL   0x000ef6       data     extern D:\3.43\pic18-lt\cxx-framework\src\traditional\proc\p18f67j60.asm
                   EDMACS   0x000ef6       data     extern D:\3.43\pic18-lt\cxx-framework\src\traditional\proc\p18f67j60.asm
                  EDMACSH   0x000ef7       data     extern D:\3.43\pic18-lt\cxx-framework\src\traditional\proc\p18f67j60.asm
                      EIE   0x000efb       data     extern D:\3.43\pic18-lt\cxx-framework\src\traditional\proc\p18f67j60.asm
                  EIEbits   0x000efb       data     extern D:\3.43\pic18-lt\cxx-framework\src\traditional\proc\p18f67j60.asm
                    ESTAT   0x000efd       data     extern D:\3.43\pic18-lt\cxx-framework\src\traditional\proc\p18f67j60.asm
                ESTATbits   0x000efd       data     extern D:\3.43\pic18-lt\cxx-framework\src\traditional\proc\p18f67j60.asm
                ECON2bits   0x000efe       data     extern D:\3.43\pic18-lt\cxx-framework\src\traditional\proc\p18f67j60.asm
                    ECON2   0x000efe       data     extern D:\3.43\pic18-lt\cxx-framework\src\traditional\proc\p18f67j60.asm
                 NextPort   0x000f00       data     static D:\Final\PIC_Module\Microchip\TCPIP Stack\TCP.c
                    MyTCB   0x000f02       data     static D:\Final\PIC_Module\Microchip\TCPIP Stack\TCP.c
                MyTCBStub   0x000f27       data     static D:\Final\PIC_Module\Microchip\TCPIP Stack\TCP.c
               RemoteInfo   0x000f43       data     static D:\Final\PIC_Module\Microchip\TCPIP Stack\TCP.c
                     prom   0x000f4f       data     static D:\3.43\pic18-lt\cxx-framework\src\traditional\startup\c018i.c
                curr_byte   0x000f52       data     static D:\3.43\pic18-lt\cxx-framework\src\traditional\startup\c018i.c
               curr_entry   0x000f54       data     static D:\3.43\pic18-lt\cxx-framework\src\traditional\startup\c018i.c
                 data_ptr   0x000f56       data     static D:\3.43\pic18-lt\cxx-framework\src\traditional\startup\c018i.c
       NextPacketLocation   0x000f59       data     static D:\Final\PIC_Module\Microchip\TCPIP Stack\ETH97J60.c
    CurrentPacketLocation   0x000f5b       data     static D:\Final\PIC_Module\Microchip\TCPIP Stack\ETH97J60.c
             WasDiscarded   0x000f5d       data     static D:\Final\PIC_Module\Microchip\TCPIP Stack\ETH97J60.c
              wTXWatchdog   0x000f5e       data     static D:\Final\PIC_Module\Microchip\TCPIP Stack\ETH97J60.c
                  EIRbits   0x000f60       data     extern D:\3.43\pic18-lt\cxx-framework\src\traditional\proc\p18f67j60.asm
                      EIR   0x000f60       data     extern D:\3.43\pic18-lt\cxx-framework\src\traditional\proc\p18f67j60.asm
                    EDATA   0x000f61       data     extern D:\3.43\pic18-lt\cxx-framework\src\traditional\proc\p18f67j60.asm
                EDATAbits   0x000f61       data     extern D:\3.43\pic18-lt\cxx-framework\src\traditional\proc\p18f67j60.asm
                 ECCP2DEL   0x000f67       data     extern D:\3.43\pic18-lt\cxx-framework\src\traditional\proc\p18f67j60.asm
             ECCP2DELbits   0x000f67       data     extern D:\3.43\pic18-lt\cxx-framework\src\traditional\proc\p18f67j60.asm
              ECCP2ASbits   0x000f68       data     extern D:\3.43\pic18-lt\cxx-framework\src\traditional\proc\p18f67j60.asm
                  ECCP2AS   0x000f68       data     extern D:\3.43\pic18-lt\cxx-framework\src\traditional\proc\p18f67j60.asm
                 ECCP3DEL   0x000f69       data     extern D:\3.43\pic18-lt\cxx-framework\src\traditional\proc\p18f67j60.asm
             ECCP3DELbits   0x000f69       data     extern D:\3.43\pic18-lt\cxx-framework\src\traditional\proc\p18f67j60.asm
                  ECCP3AS   0x000f6a       data     extern D:\3.43\pic18-lt\cxx-framework\src\traditional\proc\p18f67j60.asm
              ECCP3ASbits   0x000f6a       data     extern D:\3.43\pic18-lt\cxx-framework\src\traditional\proc\p18f67j60.asm
                  CCP5CON   0x000f70       data     extern D:\3.43\pic18-lt\cxx-framework\src\traditional\proc\p18f67j60.asm
              CCP5CONbits   0x000f70       data     extern D:\3.43\pic18-lt\cxx-framework\src\traditional\proc\p18f67j60.asm
                   CCPR5L   0x000f71       data     extern D:\3.43\pic18-lt\cxx-framework\src\traditional\proc\p18f67j60.asm
                    CCPR5   0x000f71       data     extern D:\3.43\pic18-lt\cxx-framework\src\traditional\proc\p18f67j60.asm
                   CCPR5H   0x000f72       data     extern D:\3.43\pic18-lt\cxx-framework\src\traditional\proc\p18f67j60.asm
              CCP4CONbits   0x000f73       data     extern D:\3.43\pic18-lt\cxx-framework\src\traditional\proc\p18f67j60.asm
                  CCP4CON   0x000f73       data     extern D:\3.43\pic18-lt\cxx-framework\src\traditional\proc\p18f67j60.asm
                    CCPR4   0x000f74       data     extern D:\3.43\pic18-lt\cxx-framework\src\traditional\proc\p18f67j60.asm
                   CCPR4L   0x000f74       data     extern D:\3.43\pic18-lt\cxx-framework\src\traditional\proc\p18f67j60.asm
                   CCPR4H   0x000f75       data     extern D:\3.43\pic18-lt\cxx-framework\src\traditional\proc\p18f67j60.asm
                T4CONbits   0x000f76       data     extern D:\3.43\pic18-lt\cxx-framework\src\traditional\proc\p18f67j60.asm
                    T4CON   0x000f76       data     extern D:\3.43\pic18-lt\cxx-framework\src\traditional\proc\p18f67j60.asm
                      PR4   0x000f77       data     extern D:\3.43\pic18-lt\cxx-framework\src\traditional\proc\p18f67j60.asm
                     TMR4   0x000f78       data     extern D:\3.43\pic18-lt\cxx-framework\src\traditional\proc\p18f67j60.asm
                 ECCP1DEL   0x000f79       data     extern D:\3.43\pic18-lt\cxx-framework\src\traditional\proc\p18f67j60.asm
             ECCP1DELbits   0x000f79       data     extern D:\3.43\pic18-lt\cxx-framework\src\traditional\proc\p18f67j60.asm
                    ERDPT   0x000f7a       data     extern D:\3.43\pic18-lt\cxx-framework\src\traditional\proc\p18f67j60.asm
                   ERDPTL   0x000f7a       data     extern D:\3.43\pic18-lt\cxx-framework\src\traditional\proc\p18f67j60.asm
                   ERDPTH   0x000f7b       data     extern D:\3.43\pic18-lt\cxx-framework\src\traditional\proc\p18f67j60.asm
              BAUDCTLbits   0x000f7e       data     extern D:\3.43\pic18-lt\cxx-framework\src\traditional\proc\p18f67j60.asm
             BAUDCTL1bits   0x000f7e       data     extern D:\3.43\pic18-lt\cxx-framework\src\traditional\proc\p18f67j60.asm
                 BAUDCTL1   0x000f7e       data     extern D:\3.43\pic18-lt\cxx-framework\src\traditional\proc\p18f67j60.asm
                  BAUDCTL   0x000f7e       data     extern D:\3.43\pic18-lt\cxx-framework\src\traditional\proc\p18f67j60.asm
                  BAUDCON   0x000f7e       data     extern D:\3.43\pic18-lt\cxx-framework\src\traditional\proc\p18f67j60.asm
                 BAUDCON1   0x000f7e       data     extern D:\3.43\pic18-lt\cxx-framework\src\traditional\proc\p18f67j60.asm
             BAUDCON1bits   0x000f7e       data     extern D:\3.43\pic18-lt\cxx-framework\src\traditional\proc\p18f67j60.asm
              BAUDCONbits   0x000f7e       data     extern D:\3.43\pic18-lt\cxx-framework\src\traditional\proc\p18f67j60.asm
                   SPBRGH   0x000f7f       data     extern D:\3.43\pic18-lt\cxx-framework\src\traditional\proc\p18f67j60.asm
                  SPBRGH1   0x000f7f       data     extern D:\3.43\pic18-lt\cxx-framework\src\traditional\proc\p18f67j60.asm
                PORTAbits   0x000f80       data     extern D:\3.43\pic18-lt\cxx-framework\src\traditional\proc\p18f67j60.asm
                    PORTA   0x000f80       data     extern D:\3.43\pic18-lt\cxx-framework\src\traditional\proc\p18f67j60.asm
                    PORTB   0x000f81       data     extern D:\3.43\pic18-lt\cxx-framework\src\traditional\proc\p18f67j60.asm
                PORTBbits   0x000f81       data     extern D:\3.43\pic18-lt\cxx-framework\src\traditional\proc\p18f67j60.asm
                PORTCbits   0x000f82       data     extern D:\3.43\pic18-lt\cxx-framework\src\traditional\proc\p18f67j60.asm
                    PORTC   0x000f82       data     extern D:\3.43\pic18-lt\cxx-framework\src\traditional\proc\p18f67j60.asm
                    PORTD   0x000f83       data     extern D:\3.43\pic18-lt\cxx-framework\src\traditional\proc\p18f67j60.asm
                PORTDbits   0x000f83       data     extern D:\3.43\pic18-lt\cxx-framework\src\traditional\proc\p18f67j60.asm
                    PORTE   0x000f84       data     extern D:\3.43\pic18-lt\cxx-framework\src\traditional\proc\p18f67j60.asm
                PORTEbits   0x000f84       data     extern D:\3.43\pic18-lt\cxx-framework\src\traditional\proc\p18f67j60.asm
                    PORTF   0x000f85       data     extern D:\3.43\pic18-lt\cxx-framework\src\traditional\proc\p18f67j60.asm
                PORTFbits   0x000f85       data     extern D:\3.43\pic18-lt\cxx-framework\src\traditional\proc\p18f67j60.asm
                PORTGbits   0x000f86       data     extern D:\3.43\pic18-lt\cxx-framework\src\traditional\proc\p18f67j60.asm
                    PORTG   0x000f86       data     extern D:\3.43\pic18-lt\cxx-framework\src\traditional\proc\p18f67j60.asm
                 LATAbits   0x000f89       data     extern D:\3.43\pic18-lt\cxx-framework\src\traditional\proc\p18f67j60.asm
                     LATA   0x000f89       data     extern D:\3.43\pic18-lt\cxx-framework\src\traditional\proc\p18f67j60.asm
                 LATBbits   0x000f8a       data     extern D:\3.43\pic18-lt\cxx-framework\src\traditional\proc\p18f67j60.asm
                     LATB   0x000f8a       data     extern D:\3.43\pic18-lt\cxx-framework\src\traditional\proc\p18f67j60.asm
                 LATCbits   0x000f8b       data     extern D:\3.43\pic18-lt\cxx-framework\src\traditional\proc\p18f67j60.asm
                     LATC   0x000f8b       data     extern D:\3.43\pic18-lt\cxx-framework\src\traditional\proc\p18f67j60.asm
                     LATD   0x000f8c       data     extern D:\3.43\pic18-lt\cxx-framework\src\traditional\proc\p18f67j60.asm
                 LATDbits   0x000f8c       data     extern D:\3.43\pic18-lt\cxx-framework\src\traditional\proc\p18f67j60.asm
                     LATE   0x000f8d       data     extern D:\3.43\pic18-lt\cxx-framework\src\traditional\proc\p18f67j60.asm
                 LATEbits   0x000f8d       data     extern D:\3.43\pic18-lt\cxx-framework\src\traditional\proc\p18f67j60.asm
                     LATF   0x000f8e       data     extern D:\3.43\pic18-lt\cxx-framework\src\traditional\proc\p18f67j60.asm
                 LATFbits   0x000f8e       data     extern D:\3.43\pic18-lt\cxx-framework\src\traditional\proc\p18f67j60.asm
                     LATG   0x000f8f       data     extern D:\3.43\pic18-lt\cxx-framework\src\traditional\proc\p18f67j60.asm
                 LATGbits   0x000f8f       data     extern D:\3.43\pic18-lt\cxx-framework\src\traditional\proc\p18f67j60.asm
                    TRISA   0x000f92       data     extern D:\3.43\pic18-lt\cxx-framework\src\traditional\proc\p18f67j60.asm
                TRISAbits   0x000f92       data     extern D:\3.43\pic18-lt\cxx-framework\src\traditional\proc\p18f67j60.asm
                     DDRA   0x000f92       data     extern D:\3.43\pic18-lt\cxx-framework\src\traditional\proc\p18f67j60.asm
                 DDRAbits   0x000f92       data     extern D:\3.43\pic18-lt\cxx-framework\src\traditional\proc\p18f67j60.asm
                     DDRB   0x000f93       data     extern D:\3.43\pic18-lt\cxx-framework\src\traditional\proc\p18f67j60.asm
                 DDRBbits   0x000f93       data     extern D:\3.43\pic18-lt\cxx-framework\src\traditional\proc\p18f67j60.asm
                    TRISB   0x000f93       data     extern D:\3.43\pic18-lt\cxx-framework\src\traditional\proc\p18f67j60.asm
                TRISBbits   0x000f93       data     extern D:\3.43\pic18-lt\cxx-framework\src\traditional\proc\p18f67j60.asm
                     DDRC   0x000f94       data     extern D:\3.43\pic18-lt\cxx-framework\src\traditional\proc\p18f67j60.asm
                 DDRCbits   0x000f94       data     extern D:\3.43\pic18-lt\cxx-framework\src\traditional\proc\p18f67j60.asm
                    TRISC   0x000f94       data     extern D:\3.43\pic18-lt\cxx-framework\src\traditional\proc\p18f67j60.asm
                TRISCbits   0x000f94       data     extern D:\3.43\pic18-lt\cxx-framework\src\traditional\proc\p18f67j60.asm
                     DDRD   0x000f95       data     extern D:\3.43\pic18-lt\cxx-framework\src\traditional\proc\p18f67j60.asm
                 DDRDbits   0x000f95       data     extern D:\3.43\pic18-lt\cxx-framework\src\traditional\proc\p18f67j60.asm
                    TRISD   0x000f95       data     extern D:\3.43\pic18-lt\cxx-framework\src\traditional\proc\p18f67j60.asm
                TRISDbits   0x000f95       data     extern D:\3.43\pic18-lt\cxx-framework\src\traditional\proc\p18f67j60.asm
                     DDRE   0x000f96       data     extern D:\3.43\pic18-lt\cxx-framework\src\traditional\proc\p18f67j60.asm
                 DDREbits   0x000f96       data     extern D:\3.43\pic18-lt\cxx-framework\src\traditional\proc\p18f67j60.asm
                    TRISE   0x000f96       data     extern D:\3.43\pic18-lt\cxx-framework\src\traditional\proc\p18f67j60.asm
                TRISEbits   0x000f96       data     extern D:\3.43\pic18-lt\cxx-framework\src\traditional\proc\p18f67j60.asm
                    TRISF   0x000f97       data     extern D:\3.43\pic18-lt\cxx-framework\src\traditional\proc\p18f67j60.asm
                TRISFbits   0x000f97       data     extern D:\3.43\pic18-lt\cxx-framework\src\traditional\proc\p18f67j60.asm
                     DDRF   0x000f97       data     extern D:\3.43\pic18-lt\cxx-framework\src\traditional\proc\p18f67j60.asm
                 DDRFbits   0x000f97       data     extern D:\3.43\pic18-lt\cxx-framework\src\traditional\proc\p18f67j60.asm
                    TRISG   0x000f98       data     extern D:\3.43\pic18-lt\cxx-framework\src\traditional\proc\p18f67j60.asm
                TRISGbits   0x000f98       data     extern D:\3.43\pic18-lt\cxx-framework\src\traditional\proc\p18f67j60.asm
                 DDRGbits   0x000f98       data     extern D:\3.43\pic18-lt\cxx-framework\src\traditional\proc\p18f67j60.asm
                     DDRG   0x000f98       data     extern D:\3.43\pic18-lt\cxx-framework\src\traditional\proc\p18f67j60.asm
              OSCTUNEbits   0x000f9b       data     extern D:\3.43\pic18-lt\cxx-framework\src\traditional\proc\p18f67j60.asm
                  OSCTUNE   0x000f9b       data     extern D:\3.43\pic18-lt\cxx-framework\src\traditional\proc\p18f67j60.asm
                 PIE1bits   0x000f9d       data     extern D:\3.43\pic18-lt\cxx-framework\src\traditional\proc\p18f67j60.asm
                     PIE1   0x000f9d       data     extern D:\3.43\pic18-lt\cxx-framework\src\traditional\proc\p18f67j60.asm
                 PIR1bits   0x000f9e       data     extern D:\3.43\pic18-lt\cxx-framework\src\traditional\proc\p18f67j60.asm
                     PIR1   0x000f9e       data     extern D:\3.43\pic18-lt\cxx-framework\src\traditional\proc\p18f67j60.asm
                 IPR1bits   0x000f9f       data     extern D:\3.43\pic18-lt\cxx-framework\src\traditional\proc\p18f67j60.asm
                     IPR1   0x000f9f       data     extern D:\3.43\pic18-lt\cxx-framework\src\traditional\proc\p18f67j60.asm
                     PIE2   0x000fa0       data     extern D:\3.43\pic18-lt\cxx-framework\src\traditional\proc\p18f67j60.asm
                 PIE2bits   0x000fa0       data     extern D:\3.43\pic18-lt\cxx-framework\src\traditional\proc\p18f67j60.asm
                 PIR2bits   0x000fa1       data     extern D:\3.43\pic18-lt\cxx-framework\src\traditional\proc\p18f67j60.asm
                     PIR2   0x000fa1       data     extern D:\3.43\pic18-lt\cxx-framework\src\traditional\proc\p18f67j60.asm
                 IPR2bits   0x000fa2       data     extern D:\3.43\pic18-lt\cxx-framework\src\traditional\proc\p18f67j60.asm
                     IPR2   0x000fa2       data     extern D:\3.43\pic18-lt\cxx-framework\src\traditional\proc\p18f67j60.asm
                     PIE3   0x000fa3       data     extern D:\3.43\pic18-lt\cxx-framework\src\traditional\proc\p18f67j60.asm
                 PIE3bits   0x000fa3       data     extern D:\3.43\pic18-lt\cxx-framework\src\traditional\proc\p18f67j60.asm
                 PIR3bits   0x000fa4       data     extern D:\3.43\pic18-lt\cxx-framework\src\traditional\proc\p18f67j60.asm
                     PIR3   0x000fa4       data     extern D:\3.43\pic18-lt\cxx-framework\src\traditional\proc\p18f67j60.asm
                     IPR3   0x000fa5       data     extern D:\3.43\pic18-lt\cxx-framework\src\traditional\proc\p18f67j60.asm
                 IPR3bits   0x000fa5       data     extern D:\3.43\pic18-lt\cxx-framework\src\traditional\proc\p18f67j60.asm
               EECON1bits   0x000fa6       data     extern D:\3.43\pic18-lt\cxx-framework\src\traditional\proc\p18f67j60.asm
                   EECON1   0x000fa6       data     extern D:\3.43\pic18-lt\cxx-framework\src\traditional\proc\p18f67j60.asm
                   EECON2   0x000fa7       data     extern D:\3.43\pic18-lt\cxx-framework\src\traditional\proc\p18f67j60.asm
                RCSTAbits   0x000fab       data     extern D:\3.43\pic18-lt\cxx-framework\src\traditional\proc\p18f67j60.asm
               RCSTA1bits   0x000fab       data     extern D:\3.43\pic18-lt\cxx-framework\src\traditional\proc\p18f67j60.asm
                   RCSTA1   0x000fab       data     extern D:\3.43\pic18-lt\cxx-framework\src\traditional\proc\p18f67j60.asm
                    RCSTA   0x000fab       data     extern D:\3.43\pic18-lt\cxx-framework\src\traditional\proc\p18f67j60.asm
                TXSTAbits   0x000fac       data     extern D:\3.43\pic18-lt\cxx-framework\src\traditional\proc\p18f67j60.asm
               TXSTA1bits   0x000fac       data     extern D:\3.43\pic18-lt\cxx-framework\src\traditional\proc\p18f67j60.asm
                   TXSTA1   0x000fac       data     extern D:\3.43\pic18-lt\cxx-framework\src\traditional\proc\p18f67j60.asm
                    TXSTA   0x000fac       data     extern D:\3.43\pic18-lt\cxx-framework\src\traditional\proc\p18f67j60.asm
                   TXREG1   0x000fad       data     extern D:\3.43\pic18-lt\cxx-framework\src\traditional\proc\p18f67j60.asm
                    TXREG   0x000fad       data     extern D:\3.43\pic18-lt\cxx-framework\src\traditional\proc\p18f67j60.asm
                   RCREG1   0x000fae       data     extern D:\3.43\pic18-lt\cxx-framework\src\traditional\proc\p18f67j60.asm
                    RCREG   0x000fae       data     extern D:\3.43\pic18-lt\cxx-framework\src\traditional\proc\p18f67j60.asm
                    SPBRG   0x000faf       data     extern D:\3.43\pic18-lt\cxx-framework\src\traditional\proc\p18f67j60.asm
                   SPBRG1   0x000faf       data     extern D:\3.43\pic18-lt\cxx-framework\src\traditional\proc\p18f67j60.asm
                T3CONbits   0x000fb1       data     extern D:\3.43\pic18-lt\cxx-framework\src\traditional\proc\p18f67j60.asm
                    T3CON   0x000fb1       data     extern D:\3.43\pic18-lt\cxx-framework\src\traditional\proc\p18f67j60.asm
                    TMR3L   0x000fb2       data     extern D:\3.43\pic18-lt\cxx-framework\src\traditional\proc\p18f67j60.asm
                    TMR3H   0x000fb3       data     extern D:\3.43\pic18-lt\cxx-framework\src\traditional\proc\p18f67j60.asm
                    CMCON   0x000fb4       data     extern D:\3.43\pic18-lt\cxx-framework\src\traditional\proc\p18f67j60.asm
                CMCONbits   0x000fb4       data     extern D:\3.43\pic18-lt\cxx-framework\src\traditional\proc\p18f67j60.asm
                   CVRCON   0x000fb5       data     extern D:\3.43\pic18-lt\cxx-framework\src\traditional\proc\p18f67j60.asm
               CVRCONbits   0x000fb5       data     extern D:\3.43\pic18-lt\cxx-framework\src\traditional\proc\p18f67j60.asm
                  ECCP1AS   0x000fb6       data     extern D:\3.43\pic18-lt\cxx-framework\src\traditional\proc\p18f67j60.asm
              ECCP1ASbits   0x000fb6       data     extern D:\3.43\pic18-lt\cxx-framework\src\traditional\proc\p18f67j60.asm
              CCP3CONbits   0x000fb7       data     extern D:\3.43\pic18-lt\cxx-framework\src\traditional\proc\p18f67j60.asm
                  CCP3CON   0x000fb7       data     extern D:\3.43\pic18-lt\cxx-framework\src\traditional\proc\p18f67j60.asm
                 ECCP3CON   0x000fb7       data     extern D:\3.43\pic18-lt\cxx-framework\src\traditional\proc\p18f67j60.asm
             ECCP3CONbits   0x000fb7       data     extern D:\3.43\pic18-lt\cxx-framework\src\traditional\proc\p18f67j60.asm
                    CCPR3   0x000fb8       data     extern D:\3.43\pic18-lt\cxx-framework\src\traditional\proc\p18f67j60.asm
                   CCPR3L   0x000fb8       data     extern D:\3.43\pic18-lt\cxx-framework\src\traditional\proc\p18f67j60.asm
                   CCPR3H   0x000fb9       data     extern D:\3.43\pic18-lt\cxx-framework\src\traditional\proc\p18f67j60.asm
             ECCP2CONbits   0x000fba       data     extern D:\3.43\pic18-lt\cxx-framework\src\traditional\proc\p18f67j60.asm
                 ECCP2CON   0x000fba       data     extern D:\3.43\pic18-lt\cxx-framework\src\traditional\proc\p18f67j60.asm
              CCP2CONbits   0x000fba       data     extern D:\3.43\pic18-lt\cxx-framework\src\traditional\proc\p18f67j60.asm
                  CCP2CON   0x000fba       data     extern D:\3.43\pic18-lt\cxx-framework\src\traditional\proc\p18f67j60.asm
                    CCPR2   0x000fbb       data     extern D:\3.43\pic18-lt\cxx-framework\src\traditional\proc\p18f67j60.asm
                   CCPR2L   0x000fbb       data     extern D:\3.43\pic18-lt\cxx-framework\src\traditional\proc\p18f67j60.asm
                   CCPR2H   0x000fbc       data     extern D:\3.43\pic18-lt\cxx-framework\src\traditional\proc\p18f67j60.asm
             ECCP1CONbits   0x000fbd       data     extern D:\3.43\pic18-lt\cxx-framework\src\traditional\proc\p18f67j60.asm
                 ECCP1CON   0x000fbd       data     extern D:\3.43\pic18-lt\cxx-framework\src\traditional\proc\p18f67j60.asm
                  CCP1CON   0x000fbd       data     extern D:\3.43\pic18-lt\cxx-framework\src\traditional\proc\p18f67j60.asm
              CCP1CONbits   0x000fbd       data     extern D:\3.43\pic18-lt\cxx-framework\src\traditional\proc\p18f67j60.asm
                   CCPR1L   0x000fbe       data     extern D:\3.43\pic18-lt\cxx-framework\src\traditional\proc\p18f67j60.asm
                    CCPR1   0x000fbe       data     extern D:\3.43\pic18-lt\cxx-framework\src\traditional\proc\p18f67j60.asm
                   CCPR1H   0x000fbf       data     extern D:\3.43\pic18-lt\cxx-framework\src\traditional\proc\p18f67j60.asm
                   ADCON2   0x000fc0       data     extern D:\3.43\pic18-lt\cxx-framework\src\traditional\proc\p18f67j60.asm
               ADCON2bits   0x000fc0       data     extern D:\3.43\pic18-lt\cxx-framework\src\traditional\proc\p18f67j60.asm
                   ADCON1   0x000fc1       data     extern D:\3.43\pic18-lt\cxx-framework\src\traditional\proc\p18f67j60.asm
               ADCON1bits   0x000fc1       data     extern D:\3.43\pic18-lt\cxx-framework\src\traditional\proc\p18f67j60.asm
               ADCON0bits   0x000fc2       data     extern D:\3.43\pic18-lt\cxx-framework\src\traditional\proc\p18f67j60.asm
                   ADCON0   0x000fc2       data     extern D:\3.43\pic18-lt\cxx-framework\src\traditional\proc\p18f67j60.asm
                   ADRESL   0x000fc3       data     extern D:\3.43\pic18-lt\cxx-framework\src\traditional\proc\p18f67j60.asm
                    ADRES   0x000fc3       data     extern D:\3.43\pic18-lt\cxx-framework\src\traditional\proc\p18f67j60.asm
                   ADRESH   0x000fc4       data     extern D:\3.43\pic18-lt\cxx-framework\src\traditional\proc\p18f67j60.asm
             SSP1CON2bits   0x000fc5       data     extern D:\3.43\pic18-lt\cxx-framework\src\traditional\proc\p18f67j60.asm
                 SSP1CON2   0x000fc5       data     extern D:\3.43\pic18-lt\cxx-framework\src\traditional\proc\p18f67j60.asm
                  SSPCON2   0x000fc5       data     extern D:\3.43\pic18-lt\cxx-framework\src\traditional\proc\p18f67j60.asm
              SSPCON2bits   0x000fc5       data     extern D:\3.43\pic18-lt\cxx-framework\src\traditional\proc\p18f67j60.asm
                  SSPCON1   0x000fc6       data     extern D:\3.43\pic18-lt\cxx-framework\src\traditional\proc\p18f67j60.asm
              SSPCON1bits   0x000fc6       data     extern D:\3.43\pic18-lt\cxx-framework\src\traditional\proc\p18f67j60.asm
             SSP1CON1bits   0x000fc6       data     extern D:\3.43\pic18-lt\cxx-framework\src\traditional\proc\p18f67j60.asm
                 SSP1CON1   0x000fc6       data     extern D:\3.43\pic18-lt\cxx-framework\src\traditional\proc\p18f67j60.asm
                 SSP1STAT   0x000fc7       data     extern D:\3.43\pic18-lt\cxx-framework\src\traditional\proc\p18f67j60.asm
             SSP1STATbits   0x000fc7       data     extern D:\3.43\pic18-lt\cxx-framework\src\traditional\proc\p18f67j60.asm
                  SSPSTAT   0x000fc7       data     extern D:\3.43\pic18-lt\cxx-framework\src\traditional\proc\p18f67j60.asm
              SSPSTATbits   0x000fc7       data     extern D:\3.43\pic18-lt\cxx-framework\src\traditional\proc\p18f67j60.asm
                   SSPADD   0x000fc8       data     extern D:\3.43\pic18-lt\cxx-framework\src\traditional\proc\p18f67j60.asm
                  SSP1ADD   0x000fc8       data     extern D:\3.43\pic18-lt\cxx-framework\src\traditional\proc\p18f67j60.asm
                   SSPBUF   0x000fc9       data     extern D:\3.43\pic18-lt\cxx-framework\src\traditional\proc\p18f67j60.asm
                  SSP1BUF   0x000fc9       data     extern D:\3.43\pic18-lt\cxx-framework\src\traditional\proc\p18f67j60.asm
                    T2CON   0x000fca       data     extern D:\3.43\pic18-lt\cxx-framework\src\traditional\proc\p18f67j60.asm
                T2CONbits   0x000fca       data     extern D:\3.43\pic18-lt\cxx-framework\src\traditional\proc\p18f67j60.asm
                      PR2   0x000fcb       data     extern D:\3.43\pic18-lt\cxx-framework\src\traditional\proc\p18f67j60.asm
                     TMR2   0x000fcc       data     extern D:\3.43\pic18-lt\cxx-framework\src\traditional\proc\p18f67j60.asm
                T1CONbits   0x000fcd       data     extern D:\3.43\pic18-lt\cxx-framework\src\traditional\proc\p18f67j60.asm
                    T1CON   0x000fcd       data     extern D:\3.43\pic18-lt\cxx-framework\src\traditional\proc\p18f67j60.asm
                    TMR1L   0x000fce       data     extern D:\3.43\pic18-lt\cxx-framework\src\traditional\proc\p18f67j60.asm
                    TMR1H   0x000fcf       data     extern D:\3.43\pic18-lt\cxx-framework\src\traditional\proc\p18f67j60.asm
                     RCON   0x000fd0       data     extern D:\3.43\pic18-lt\cxx-framework\src\traditional\proc\p18f67j60.asm
                 RCONbits   0x000fd0       data     extern D:\3.43\pic18-lt\cxx-framework\src\traditional\proc\p18f67j60.asm
                   WDTCON   0x000fd1       data     extern D:\3.43\pic18-lt\cxx-framework\src\traditional\proc\p18f67j60.asm
               WDTCONbits   0x000fd1       data     extern D:\3.43\pic18-lt\cxx-framework\src\traditional\proc\p18f67j60.asm
                    ECON1   0x000fd2       data     extern D:\3.43\pic18-lt\cxx-framework\src\traditional\proc\p18f67j60.asm
                ECON1bits   0x000fd2       data     extern D:\3.43\pic18-lt\cxx-framework\src\traditional\proc\p18f67j60.asm
                   OSCCON   0x000fd3       data     extern D:\3.43\pic18-lt\cxx-framework\src\traditional\proc\p18f67j60.asm
               OSCCONbits   0x000fd3       data     extern D:\3.43\pic18-lt\cxx-framework\src\traditional\proc\p18f67j60.asm
                    T0CON   0x000fd5       data     extern D:\3.43\pic18-lt\cxx-framework\src\traditional\proc\p18f67j60.asm
                T0CONbits   0x000fd5       data     extern D:\3.43\pic18-lt\cxx-framework\src\traditional\proc\p18f67j60.asm
                    TMR0L   0x000fd6       data     extern D:\3.43\pic18-lt\cxx-framework\src\traditional\proc\p18f67j60.asm
                    TMR0H   0x000fd7       data     extern D:\3.43\pic18-lt\cxx-framework\src\traditional\proc\p18f67j60.asm
               STATUSbits   0x000fd8       data     extern D:\3.43\pic18-lt\cxx-framework\src\traditional\proc\p18f67j60.asm
                   STATUS   0x000fd8       data     extern D:\3.43\pic18-lt\cxx-framework\src\traditional\proc\p18f67j60.asm
                    FSR2L   0x000fd9       data     extern D:\3.43\pic18-lt\cxx-framework\src\traditional\proc\p18f67j60.asm
                     FSR2   0x000fd9       data     extern D:\3.43\pic18-lt\cxx-framework\src\traditional\proc\p18f67j60.asm
                    FSR2H   0x000fda       data     extern D:\3.43\pic18-lt\cxx-framework\src\traditional\proc\p18f67j60.asm
                   PLUSW2   0x000fdb       data     extern D:\3.43\pic18-lt\cxx-framework\src\traditional\proc\p18f67j60.asm
                  PREINC2   0x000fdc       data     extern D:\3.43\pic18-lt\cxx-framework\src\traditional\proc\p18f67j60.asm
                 POSTDEC2   0x000fdd       data     extern D:\3.43\pic18-lt\cxx-framework\src\traditional\proc\p18f67j60.asm
                 POSTINC2   0x000fde       data     extern D:\3.43\pic18-lt\cxx-framework\src\traditional\proc\p18f67j60.asm
                    INDF2   0x000fdf       data     extern D:\3.43\pic18-lt\cxx-framework\src\traditional\proc\p18f67j60.asm
                      BSR   0x000fe0       data     extern D:\3.43\pic18-lt\cxx-framework\src\traditional\proc\p18f67j60.asm
                     FSR1   0x000fe1       data     extern D:\3.43\pic18-lt\cxx-framework\src\traditional\proc\p18f67j60.asm
                    FSR1L   0x000fe1       data     extern D:\3.43\pic18-lt\cxx-framework\src\traditional\proc\p18f67j60.asm
                    FSR1H   0x000fe2       data     extern D:\3.43\pic18-lt\cxx-framework\src\traditional\proc\p18f67j60.asm
                   PLUSW1   0x000fe3       data     extern D:\3.43\pic18-lt\cxx-framework\src\traditional\proc\p18f67j60.asm
                  PREINC1   0x000fe4       data     extern D:\3.43\pic18-lt\cxx-framework\src\traditional\proc\p18f67j60.asm
                 POSTDEC1   0x000fe5       data     extern D:\3.43\pic18-lt\cxx-framework\src\traditional\proc\p18f67j60.asm
                 POSTINC1   0x000fe6       data     extern D:\3.43\pic18-lt\cxx-framework\src\traditional\proc\p18f67j60.asm
                    INDF1   0x000fe7       data     extern D:\3.43\pic18-lt\cxx-framework\src\traditional\proc\p18f67j60.asm
                     WREG   0x000fe8       data     extern D:\3.43\pic18-lt\cxx-framework\src\traditional\proc\p18f67j60.asm
                     FSR0   0x000fe9       data     extern D:\3.43\pic18-lt\cxx-framework\src\traditional\proc\p18f67j60.asm
                    FSR0L   0x000fe9       data     extern D:\3.43\pic18-lt\cxx-framework\src\traditional\proc\p18f67j60.asm
                    FSR0H   0x000fea       data     extern D:\3.43\pic18-lt\cxx-framework\src\traditional\proc\p18f67j60.asm
                   PLUSW0   0x000feb       data     extern D:\3.43\pic18-lt\cxx-framework\src\traditional\proc\p18f67j60.asm
                  PREINC0   0x000fec       data     extern D:\3.43\pic18-lt\cxx-framework\src\traditional\proc\p18f67j60.asm
                 POSTDEC0   0x000fed       data     extern D:\3.43\pic18-lt\cxx-framework\src\traditional\proc\p18f67j60.asm
                 POSTINC0   0x000fee       data     extern D:\3.43\pic18-lt\cxx-framework\src\traditional\proc\p18f67j60.asm
                    INDF0   0x000fef       data     extern D:\3.43\pic18-lt\cxx-framework\src\traditional\proc\p18f67j60.asm
                  INTCON3   0x000ff0       data     extern D:\3.43\pic18-lt\cxx-framework\src\traditional\proc\p18f67j60.asm
              INTCON3bits   0x000ff0       data     extern D:\3.43\pic18-lt\cxx-framework\src\traditional\proc\p18f67j60.asm
                  INTCON2   0x000ff1       data     extern D:\3.43\pic18-lt\cxx-framework\src\traditional\proc\p18f67j60.asm
              INTCON2bits   0x000ff1       data     extern D:\3.43\pic18-lt\cxx-framework\src\traditional\proc\p18f67j60.asm
                   INTCON   0x000ff2       data     extern D:\3.43\pic18-lt\cxx-framework\src\traditional\proc\p18f67j60.asm
               INTCONbits   0x000ff2       data     extern D:\3.43\pic18-lt\cxx-framework\src\traditional\proc\p18f67j60.asm
                    PRODL   0x000ff3       data     extern D:\3.43\pic18-lt\cxx-framework\src\traditional\proc\p18f67j60.asm
                     PROD   0x000ff3       data     extern D:\3.43\pic18-lt\cxx-framework\src\traditional\proc\p18f67j60.asm
                    PRODH   0x000ff4       data     extern D:\3.43\pic18-lt\cxx-framework\src\traditional\proc\p18f67j60.asm
                   TABLAT   0x000ff5       data     extern D:\3.43\pic18-lt\cxx-framework\src\traditional\proc\p18f67j60.asm
                  TBLPTRL   0x000ff6       data     extern D:\3.43\pic18-lt\cxx-framework\src\traditional\proc\p18f67j60.asm
                   TBLPTR   0x000ff6       data     extern D:\3.43\pic18-lt\cxx-framework\src\traditional\proc\p18f67j60.asm
                  TBLPTRH   0x000ff7       data     extern D:\3.43\pic18-lt\cxx-framework\src\traditional\proc\p18f67j60.asm
                  TBLPTRU   0x000ff8       data     extern D:\3.43\pic18-lt\cxx-framework\src\traditional\proc\p18f67j60.asm
                      PCL   0x000ff9       data     extern D:\3.43\pic18-lt\cxx-framework\src\traditional\proc\p18f67j60.asm
                       PC   0x000ff9       data     extern D:\3.43\pic18-lt\cxx-framework\src\traditional\proc\p18f67j60.asm
                   PCLATH   0x000ffa       data     extern D:\3.43\pic18-lt\cxx-framework\src\traditional\proc\p18f67j60.asm
                   PCLATU   0x000ffb       data     extern D:\3.43\pic18-lt\cxx-framework\src\traditional\proc\p18f67j60.asm
                   STKPTR   0x000ffc       data     extern D:\3.43\pic18-lt\cxx-framework\src\traditional\proc\p18f67j60.asm
               STKPTRbits   0x000ffc       data     extern D:\3.43\pic18-lt\cxx-framework\src\traditional\proc\p18f67j60.asm
                      TOS   0x000ffd       data     extern D:\3.43\pic18-lt\cxx-framework\src\traditional\proc\p18f67j60.asm
                     TOSL   0x000ffd       data     extern D:\3.43\pic18-lt\cxx-framework\src\traditional\proc\p18f67j60.asm
                     TOSH   0x000ffe       data     extern D:\3.43\pic18-lt\cxx-framework\src\traditional\proc\p18f67j60.asm
                     TOSU   0x000fff       data     extern D:\3.43\pic18-lt\cxx-framework\src\traditional\proc\p18f67j60.asm


